 Academic Section Management

 Timestamp is 65e4e4f3 (Mon Mar 04 02:30:35 2024)

 Preferred load address is 00400000

 Start         Length     Name                   Class
 0001:00000000 00000435H .text$di                CODE
 0001:00000440 0001dd62H .text$mn                CODE
 0001:0001e1a4 000000beH .text$yd                CODE
 0002:00000000 0000012cH .idata$5                DATA
 0002:0000012c 00000004H .CRT$XCA                DATA
 0002:00000130 00000004H .CRT$XCZ                DATA
 0002:00000134 00000004H .CRT$XIA                DATA
 0002:00000138 00000004H .CRT$XIAA               DATA
 0002:0000013c 00000004H .CRT$XIC                DATA
 0002:00000140 00000004H .CRT$XIZ                DATA
 0002:00000144 00000004H .CRTMA$XCA              DATA
 0002:00000148 0000001cH .CRTMA$XCC              DATA
 0002:00000164 00000004H .CRTMA$XCZ              DATA
 0002:00000168 00000004H .CRTMP$XCA              DATA
 0002:0000016c 00000014H .CRTMP$XCU              DATA
 0002:00000180 00000004H .CRTMP$XCZ              DATA
 0002:00000184 00000004H .CRTVT$XCA              DATA
 0002:00000188 00000004H .CRTVT$XCZ              DATA
 0002:00000190 0017d43cH .rdata                  DATA
 0002:0017d5cc 00000084H .rdata$debug            DATA
 0002:0017d650 00000730H .rdata$ilfixup          DATA
 0002:0017dd80 00000340H .rdata$r                DATA
 0002:0017e0c0 00000004H .rdata$sxdata           DATA
 0002:0017e0c4 00000004H .rtc$IAA                DATA
 0002:0017e0c8 00000004H .rtc$IZZ                DATA
 0002:0017e0cc 00000004H .rtc$TAA                DATA
 0002:0017e0d0 00000004H .rtc$TZZ                DATA
 0002:0017e0d8 000000acH .xdata$x                DATA
 0002:0017e184 00000000H .edata                  DATA
 0002:0017e184 00000078H .idata$2                DATA
 0002:0017e1fc 00000014H .idata$3                DATA
 0002:0017e210 0000012cH .idata$4                DATA
 0002:0017e33c 0000052eH .idata$6                DATA
 0003:00000000 00000470H .data                   DATA
 0003:00000470 0000017cH .data$r                 DATA
 0003:000005f0 00001a30H .bss                    DATA
 0004:00000000 00000058H .rsrc$01                DATA
 0004:00000060 00000180H .rsrc$02                DATA

  Address         Publics by Value              Rva+Base       Lib:Object

 0000:00000000       ___guard_flags             00000000     <absolute>
 0000:00000000       ___guard_fids_count        00000000     <absolute>
 0000:00000000       ___guard_fids_table        00000000     <absolute>
 0000:00000000       __except_list              00000000     <absolute>
 0000:00000001       ___safe_se_handler_count   00000001     <absolute>
 0000:00000001       ?IsDefaultDomain@CurrentDomain@<CrtImplementationDetails>@@$$Q2_NA 00000001     <absolute>
 0000:00000004       ?__exit_list_size_app_domain@@$$Q3IA 00000004     <absolute>
 0000:00000004       ?InitializedNative@CurrentDomain@<CrtImplementationDetails>@@$$Q2W4State@Progress@2@A 00000004     <absolute>
 0000:00000004       ?InitializedPerProcess@CurrentDomain@<CrtImplementationDetails>@@$$Q2W4State@Progress@2@A 00000004     <absolute>
 0000:00000004       ?_ref_count@AtExitLock@<CrtImplementationDetails>@@$$Q0HA 00000004     <absolute>
 0000:00000004       ?Uninitialized@CurrentDomain@<CrtImplementationDetails>@@$$Q2HA 00000004     <absolute>
 0000:00000004       ?__onexitend_app_domain@@$$Q3PAP6MXXZA 00000004     <absolute>
 0000:00000004       ?__onexitbegin_app_domain@@$$Q3PAP6MXXZA 00000004     <absolute>
 0000:00000004       ?_lock@AtExitLock@<CrtImplementationDetails>@@$$Q0PAXA 00000004     <absolute>
 0000:00000004       ?InitializedPerAppDomain@CurrentDomain@<CrtImplementationDetails>@@$$Q2W4State@Progress@2@A 00000004     <absolute>
 0000:00000004       ?InitializedVtables@CurrentDomain@<CrtImplementationDetails>@@$$Q2W4State@Progress@2@A 00000004     <absolute>
 0000:00000004       ?Initialized@CurrentDomain@<CrtImplementationDetails>@@$$Q2HA 00000004     <absolute>
 0000:00009876       __fltused                  00009876     <absolute>
 0000:00009876       __ldused                   00009876     <absolute>
 0001:00000000       ???__E?_Generic_object@?$_Error_objects@H@std@@2V_Generic_error_category@2@A@@YMXXZ@?A0x651c96ac@@$$FYMXXZ 00401000 f i classroomlist.obj
 0001:00000054       ???__E?_Iostream_object@?$_Error_objects@H@std@@2V_Iostream_error_category@2@A@@YMXXZ@?A0x651c96ac@@$$FYMXXZ 00401054 f i classroomlist.obj
 0001:000000e0       ???__E?_System_object@?$_Error_objects@H@std@@2V_System_error_category@2@A@@YMXXZ@?A0x651c96ac@@$$FYMXXZ 004010e0 f i classroomlist.obj
 0001:0000016c       ???__E?id@?$num_put@DV?$back_insert_iterator@V?$basic_string@DU?$char_traits@D@std@@V?$allocator@D@2@@std@@@std@@@std@@2V0locale@2@A@@YMXXZ@?A0x651c96ac@@$$FYMXXZ 0040116c f i classroomlist.obj
 0001:00000188       ???__E?id@?$num_put@_WV?$back_insert_iterator@V?$basic_string@_WU?$char_traits@_W@std@@V?$allocator@_W@2@@std@@@std@@@std@@2V0locale@2@A@@YMXXZ@?A0x651c96ac@@$$FYMXXZ 00401188 f i classroomlist.obj
 0001:000001a1       __t2m@???__E?id@?$num_put@DV?$back_insert_iterator@V?$basic_string@DU?$char_traits@D@std@@V?$allocator@D@2@@std@@@std@@@std@@2V0locale@2@A@@YMXXZ@?A0x651c96ac@@YMXXZ 004011a1 f i classroomlist.obj
 0001:000001a7       __t2m@???__E?id@?$num_put@_WV?$back_insert_iterator@V?$basic_string@_WU?$char_traits@_W@std@@V?$allocator@_W@2@@std@@@std@@@std@@2V0locale@2@A@@YMXXZ@?A0x651c96ac@@YMXXZ 004011a7 f i classroomlist.obj
 0001:000001ad       __t2m@???__E?_Generic_object@?$_Error_objects@H@std@@2V_Generic_error_category@2@A@@YMXXZ@?A0x651c96ac@@YMXXZ 004011ad f i classroomlist.obj
 0001:000001b3       __t2m@???__E?_Iostream_object@?$_Error_objects@H@std@@2V_Iostream_error_category@2@A@@YMXXZ@?A0x651c96ac@@YMXXZ 004011b3 f i classroomlist.obj
 0001:000001b9       __t2m@???__E?_System_object@?$_Error_objects@H@std@@2V_System_error_category@2@A@@YMXXZ@?A0x651c96ac@@YMXXZ 004011b9 f i classroomlist.obj
 0001:000001c0       ???__E?_Generic_object@?$_Error_objects@H@std@@2V_Generic_error_category@2@A@@YMXXZ@?A0xef14c5be@@$$FYMXXZ 004011c0 f i Root.obj
 0001:00000214       ???__E?_Iostream_object@?$_Error_objects@H@std@@2V_Iostream_error_category@2@A@@YMXXZ@?A0xef14c5be@@$$FYMXXZ 00401214 f i Root.obj
 0001:000002a0       ???__E?_System_object@?$_Error_objects@H@std@@2V_System_error_category@2@A@@YMXXZ@?A0xef14c5be@@$$FYMXXZ 004012a0 f i Root.obj
 0001:0000032c       ???__E?id@?$num_put@DV?$back_insert_iterator@V?$basic_string@DU?$char_traits@D@std@@V?$allocator@D@2@@std@@@std@@@std@@2V0locale@2@A@@YMXXZ@?A0xef14c5be@@$$FYMXXZ 0040132c f i Root.obj
 0001:00000348       ???__E?id@?$num_put@_WV?$back_insert_iterator@V?$basic_string@_WU?$char_traits@_W@std@@V?$allocator@_W@2@@std@@@std@@@std@@2V0locale@2@A@@YMXXZ@?A0xef14c5be@@$$FYMXXZ 00401348 f i Root.obj
 0001:00000361       __t2m@???__E?id@?$num_put@DV?$back_insert_iterator@V?$basic_string@DU?$char_traits@D@std@@V?$allocator@D@2@@std@@@std@@@std@@2V0locale@2@A@@YMXXZ@?A0xef14c5be@@YMXXZ 00401361 f i Root.obj
 0001:00000367       __t2m@???__E?id@?$num_put@_WV?$back_insert_iterator@V?$basic_string@_WU?$char_traits@_W@std@@V?$allocator@_W@2@@std@@@std@@@std@@2V0locale@2@A@@YMXXZ@?A0xef14c5be@@YMXXZ 00401367 f i Root.obj
 0001:0000036d       __t2m@???__E?_Generic_object@?$_Error_objects@H@std@@2V_Generic_error_category@2@A@@YMXXZ@?A0xef14c5be@@YMXXZ 0040136d f i Root.obj
 0001:00000373       __t2m@???__E?_Iostream_object@?$_Error_objects@H@std@@2V_Iostream_error_category@2@A@@YMXXZ@?A0xef14c5be@@YMXXZ 00401373 f i Root.obj
 0001:00000379       __t2m@???__E?_System_object@?$_Error_objects@H@std@@2V_System_error_category@2@A@@YMXXZ@?A0xef14c5be@@YMXXZ 00401379 f i Root.obj
 0001:00000380       ???__E?Initialized@CurrentDomain@<CrtImplementationDetails>@@$$Q2HA@@YMXXZ@?A0xd2508fec@@$$FYMXXZ 00401380 f i MSVCMRT:mstartup.obj
 0001:00000394       ???__E?Uninitialized@CurrentDomain@<CrtImplementationDetails>@@$$Q2HA@@YMXXZ@?A0xd2508fec@@$$FYMXXZ 00401394 f i MSVCMRT:mstartup.obj
 0001:000003a8       ???__E?IsDefaultDomain@CurrentDomain@<CrtImplementationDetails>@@$$Q2_NA@@YMXXZ@?A0xd2508fec@@$$FYMXXZ 004013a8 f i MSVCMRT:mstartup.obj
 0001:000003bc       ???__E?InitializedVtables@CurrentDomain@<CrtImplementationDetails>@@$$Q2W4State@Progress@2@A@@YMXXZ@?A0xd2508fec@@$$FYMXXZ 004013bc f i MSVCMRT:mstartup.obj
 0001:000003d0       ???__E?InitializedNative@CurrentDomain@<CrtImplementationDetails>@@$$Q2W4State@Progress@2@A@@YMXXZ@?A0xd2508fec@@$$FYMXXZ 004013d0 f i MSVCMRT:mstartup.obj
 0001:000003e4       ???__E?InitializedPerProcess@CurrentDomain@<CrtImplementationDetails>@@$$Q2W4State@Progress@2@A@@YMXXZ@?A0xd2508fec@@$$FYMXXZ 004013e4 f i MSVCMRT:mstartup.obj
 0001:000003f8       ???__E?InitializedPerAppDomain@CurrentDomain@<CrtImplementationDetails>@@$$Q2W4State@Progress@2@A@@YMXXZ@?A0xd2508fec@@$$FYMXXZ 004013f8 f i MSVCMRT:mstartup.obj
 0001:0000040b       __t2m@???__E?Initialized@CurrentDomain@<CrtImplementationDetails>@@$$Q2HA@@YMXXZ@?A0xd2508fec@@YMXXZ 0040140b f i MSVCMRT:mstartup.obj
 0001:00000411       __t2m@???__E?Uninitialized@CurrentDomain@<CrtImplementationDetails>@@$$Q2HA@@YMXXZ@?A0xd2508fec@@YMXXZ 00401411 f i MSVCMRT:mstartup.obj
 0001:00000417       __t2m@???__E?IsDefaultDomain@CurrentDomain@<CrtImplementationDetails>@@$$Q2_NA@@YMXXZ@?A0xd2508fec@@YMXXZ 00401417 f i MSVCMRT:mstartup.obj
 0001:0000041d       __t2m@???__E?InitializedVtables@CurrentDomain@<CrtImplementationDetails>@@$$Q2W4State@Progress@2@A@@YMXXZ@?A0xd2508fec@@YMXXZ 0040141d f i MSVCMRT:mstartup.obj
 0001:00000423       __t2m@???__E?InitializedNative@CurrentDomain@<CrtImplementationDetails>@@$$Q2W4State@Progress@2@A@@YMXXZ@?A0xd2508fec@@YMXXZ 00401423 f i MSVCMRT:mstartup.obj
 0001:00000429       __t2m@???__E?InitializedPerProcess@CurrentDomain@<CrtImplementationDetails>@@$$Q2W4State@Progress@2@A@@YMXXZ@?A0xd2508fec@@YMXXZ 00401429 f i MSVCMRT:mstartup.obj
 0001:0000042f       __t2m@???__E?InitializedPerAppDomain@CurrentDomain@<CrtImplementationDetails>@@$$Q2W4State@Progress@2@A@@YMXXZ@?A0xd2508fec@@YMXXZ 0040142f f i MSVCMRT:mstartup.obj
 0001:00000440       ?ExecuteQuery@DatabaseHelper@@$$FSMP$AAVSqlDataReader@SqlClient@Data@System@@P$AAVString@5@P$01AP$AAVSqlParameter@345@@Z 00401440 f i classroomlist.obj
 0001:000004e0       ?ExecuteQuery@DatabaseHelper@@$$FSMP$AAVSqlDataReader@SqlClient@Data@System@@P$AAVString@5@@Z 004014e0 f i classroomlist.obj
 0001:0000054c       ??0DatabaseHelper@@$$FQ$AAM@XZ 0040154c f i classroomlist.obj
 0001:00000560       ?hypot@@$$J0YANNN@Z        00401560 f i classroomlist.obj
 0001:00000574       __t2m@_hypot               00401574 f i classroomlist.obj
 0001:0000057c       ??0exception_ptr@std@@$$FQAE@ABV01@@Z 0040157c f i classroomlist.obj
 0001:00000591       __t2m@??0exception_ptr@std@@QAE@ABV01@@Z 00401591 f i classroomlist.obj
 0001:00000598       ??2@$$FYAPAXIPAX@Z         00401598 f i classroomlist.obj
 0001:000005a8       ??3@$$FYAXPAX0@Z           004015a8 f i classroomlist.obj
 0001:000005b8       ?copy@?$char_traits@D@std@@$$FSAPADPADPBDI@Z 004015b8 f i classroomlist.obj
 0001:000005d4       ?move@?$char_traits@D@std@@$$FSAPADPADPBDI@Z 004015d4 f i classroomlist.obj
 0001:000005f0       ?assign@?$char_traits@D@std@@$$FSAXAADABD@Z 004015f0 f i classroomlist.obj
 0001:00000604       ?_Adopt@_Iterator_base12@std@@$$FQAEXPBU_Container_base12@2@@Z 00401604 f i classroomlist.obj
 0001:00000618       ??0?$allocator@X@std@@$$FQAE@ABV01@@Z 00401618 f i classroomlist.obj
 0001:00000626       __t2m@??0?$allocator@X@std@@QAE@ABV01@@Z 00401626 f i classroomlist.obj
 0001:0000062c       ??1runtime_error@std@@$$FUAE@XZ 0040162c f i classroomlist.obj
 0001:00000640       ??0runtime_error@std@@$$FQAE@ABV01@@Z 00401640 f i classroomlist.obj
 0001:00000688       __t2m@??0runtime_error@std@@QAE@ABV01@@Z 00401688 f i classroomlist.obj
 0001:00000690       ??0locale@std@@$$FQAE@ABV01@@Z 00401690 f i classroomlist.obj
 0001:000006af       __t2m@??0locale@std@@QAE@ABV01@@Z 004016af f i classroomlist.obj
 0001:000006b8       ??0error_category@std@@$$FQAE@XZ 004016b8 f i classroomlist.obj
 0001:000006d0       ??1error_category@std@@$$FUAE@XZ 004016d0 f i classroomlist.obj
 0001:000006e4       ??1_System_error@std@@$$FUAE@XZ 004016e4 f i classroomlist.obj
 0001:000006f8       ??1system_error@std@@$$FUAE@XZ 004016f8 f i classroomlist.obj
 0001:0000070c       ??0_Generic_error_category@std@@$$FQAE@XZ 0040170c f i classroomlist.obj
 0001:00000754       ??1_Generic_error_category@std@@$$FUAE@XZ 00401754 f i classroomlist.obj
 0001:00000768       ??0_Iostream_error_category@std@@$$FQAE@XZ 00401768 f i classroomlist.obj
 0001:000007e0       ??1_Iostream_error_category@std@@$$FUAE@XZ 004017e0 f i classroomlist.obj
 0001:000007f4       ??0_System_error_category@std@@$$FQAE@XZ 004017f4 f i classroomlist.obj
 0001:0000086c       ??1_System_error_category@std@@$$FUAE@XZ 0040186c f i classroomlist.obj
 0001:00000880       ??0_System_error@std@@$$FQAE@ABV01@@Z 00401880 f i classroomlist.obj
 0001:00000904       __t2m@??0_System_error@std@@QAE@ABV01@@Z 00401904 f i classroomlist.obj
 0001:0000090c       ??1classroomlist@CS346_A2@@$$FA$AAM@XZ 0040190c f i classroomlist.obj
 0001:0000092c       ?display_classroom_list@classroomlist@CS346_A2@@$$FA$AAMXXZ 0040192c f i classroomlist.obj
 0001:000009d4       ?insert_into_db@classroomlist@CS346_A2@@$$FA$AAMXXZ 004019d4 f i classroomlist.obj
 0001:00000ab8       ?classroomlist_Load@classroomlist@CS346_A2@@$$FA$AAMXP$AAVObject@System@@P$AAVEventArgs@4@@Z 00401ab8 f i classroomlist.obj
 0001:00000acc       ?button1_Click@classroomlist@CS346_A2@@$$FA$AAMXP$AAVObject@System@@P$AAVEventArgs@4@@Z 00401acc f i classroomlist.obj
 0001:00000ae8       ?<Dispose>@classroomlist@CS346_A2@@$$FM$AAMX_N@Z 00401ae8 f i classroomlist.obj
 0001:00000b2c       ?size@?$basic_string@DU?$char_traits@D@std@@V?$allocator@D@2@@std@@$$FQBEIXZ 00401b2c f i classroomlist.obj
 0001:00000b40       ??0?$allocator@D@std@@$$FQAE@XZ 00401b40 f i classroomlist.obj
 0001:00000b50       ?_Xlen@?$basic_string@DU?$char_traits@D@std@@V?$allocator@D@2@@std@@$$FQBEXXZ 00401b50 f i classroomlist.obj
 0001:00000b68       ?_Xran@?$basic_string@DU?$char_traits@D@std@@V?$allocator@D@2@@std@@$$FQBEXXZ 00401b68 f i classroomlist.obj
 0001:00000b80       ??0?$_Wrap_alloc@V?$allocator@D@std@@@std@@$$FQAE@XZ 00401b80 f i classroomlist.obj
 0001:00000b90       ??0?$_String_val@U?$_Simple_types@D@std@@@std@@$$FQAE@XZ 00401b90 f i classroomlist.obj
 0001:00000bac       ??0?$allocator@D@std@@$$FQAE@ABV01@@Z 00401bac f i classroomlist.obj
 0001:00000bba       __t2m@??0?$allocator@D@std@@QAE@ABV01@@Z 00401bba f i classroomlist.obj
 0001:00000bc0       ?deallocate@?$allocator@D@std@@$$FQAEXPADI@Z 00401bc0 f i classroomlist.obj
 0001:00000bd4       ??0?$allocator@_W@std@@$$FQAE@ABV01@@Z 00401bd4 f i classroomlist.obj
 0001:00000be2       __t2m@??0?$allocator@_W@std@@QAE@ABV01@@Z 00401be2 f i classroomlist.obj
 0001:00000be8       ?max_size@?$allocator@D@std@@$$FQBEIXZ 00401be8 f i classroomlist.obj
 0001:00000bf8       ??$addressof@D@std@@$$FYAPADAAD@Z 00401bf8 f i classroomlist.obj
 0001:00000c08       ??$_Allocate@D@std@@$$FYAPADIPAD@Z 00401c08 f i classroomlist.obj
 0001:00000c30       ??$forward@AAPAD@std@@$$FYAAAPADAAPAD@Z 00401c30 f i classroomlist.obj
 0001:00000c40       ??$construct@PADAAPAD@?$allocator@D@std@@$$FQAEXPAPADAAPAD@Z 00401c40 f i classroomlist.obj
 0001:00000c80       ??$destroy@PAD@?$allocator@D@std@@$$FQAEXPAPAD@Z 00401c80 f i classroomlist.obj
 0001:00000c90       ??4_Iterator_base12@std@@$$FQAEAAU01@ABU01@@Z 00401c90 f i classroomlist.obj
 0001:00000cb4       ??0system_error@std@@$$FQAE@ABV01@@Z 00401cb4 f i classroomlist.obj
 0001:00000d68       __t2m@??0system_error@std@@QAE@ABV01@@Z 00401d68 f i classroomlist.obj
 0001:00000d70       ?InitializeComponent@classroomlist@CS346_A2@@$$FA$AAMXXZ 00401d70 f i classroomlist.obj
 0001:00001728       ??0?$_String_alloc@$0A@U?$_String_base_types@DV?$allocator@D@std@@@std@@@std@@$$FQAE@ABV?$allocator@D@1@@Z 00402728 f i classroomlist.obj
 0001:00001744       ?_Getal@?$_String_alloc@$0A@U?$_String_base_types@DV?$allocator@D@std@@@std@@@std@@$$FQBE?AU?$_Wrap_alloc@V?$allocator@D@std@@@2@XZ 00402744 f i classroomlist.obj
 0001:00001754       ?_Myptr@?$_String_val@U?$_Simple_types@D@std@@@std@@$$FQBEPBDXZ 00402754 f i classroomlist.obj
 0001:00001770       ??0?$_Wrap_alloc@V?$allocator@D@std@@@std@@$$FQAE@ABV?$allocator@D@1@@Z 00402770 f i classroomlist.obj
 0001:00001780       ?deallocate@?$_Wrap_alloc@V?$allocator@D@std@@@std@@$$FQAEXPADI@Z 00402780 f i classroomlist.obj
 0001:00001794       ?_Myptr@?$_String_val@U?$_Simple_types@D@std@@@std@@$$FQAEPADXZ 00402794 f i classroomlist.obj
 0001:000017b0       ?select_on_container_copy_construction@?$allocator@D@std@@$$FQBE?AV12@XZ 004027b0 f i classroomlist.obj
 0001:000017c0       ?allocate@?$allocator@D@std@@$$FQAEPADI@Z 004027c0 f i classroomlist.obj
 0001:000017e8       ?max_size@?$allocator_traits@V?$allocator@D@std@@@std@@$$FSAIABV?$allocator@D@2@@Z 004027e8 f i classroomlist.obj
 0001:000017f8       ??$construct@PADAAPAD@?$allocator_traits@V?$allocator@D@std@@@std@@$$FSAXAAV?$allocator@D@1@PAPADAAPAD@Z 004027f8 f i classroomlist.obj
 0001:00001838       ??$destroy@PAD@?$allocator_traits@V?$allocator@D@std@@@std@@$$FSAXAAV?$allocator@D@1@PAPAD@Z 00402838 f i classroomlist.obj
 0001:00001848       ??0_Iterator_base12@std@@$$FQAE@ABU01@@Z 00402848 f i classroomlist.obj
 0001:0000186f       __t2m@??0_Iterator_base12@std@@QAE@ABU01@@Z 0040286f f i classroomlist.obj
 0001:00001878       ??0failure@ios_base@std@@$$FQAE@ABV012@@Z 00402878 f i classroomlist.obj
 0001:00001958       __t2m@??0failure@ios_base@std@@QAE@ABV012@@Z 00402958 f i classroomlist.obj
 0001:00001960       ??0classroomlist@CS346_A2@@$$FQ$AAM@XZ 00402960 f i classroomlist.obj
 0001:000019a0       ?_Eos@?$basic_string@DU?$char_traits@D@std@@V?$allocator@D@2@@std@@$$FQAEXI@Z 004029a0 f i classroomlist.obj
 0001:000019c8       ?select_on_container_copy_construction@?$allocator_traits@V?$allocator@D@std@@@std@@$$FSA?AV?$allocator@D@2@ABV32@@Z 004029c8 f i classroomlist.obj
 0001:000019d8       ?allocate@?$_Wrap_alloc@V?$allocator@D@std@@@std@@$$FQAEPADI@Z 004029d8 f i classroomlist.obj
 0001:00001a00       ?max_size@?$_Wrap_alloc@V?$allocator@D@std@@@std@@$$FQBEIXZ 00402a00 f i classroomlist.obj
 0001:00001a10       ??$construct@PADAAPAD@?$_Wrap_alloc@V?$allocator@D@std@@@std@@$$FQAEXPAPADAAPAD@Z 00402a10 f i classroomlist.obj
 0001:00001a50       ??$destroy@PAD@?$_Wrap_alloc@V?$allocator@D@std@@@std@@$$FQAEXPAPAD@Z 00402a50 f i classroomlist.obj
 0001:00001a60       ?_Tidy@?$basic_string@DU?$char_traits@D@std@@V?$allocator@D@2@@std@@$$FQAEX_NI@Z 00402a60 f i classroomlist.obj
 0001:00001aa0       ?select_on_container_copy_construction@?$_Wrap_alloc@V?$allocator@D@std@@@std@@$$FQBE?AU12@XZ 00402aa0 f i classroomlist.obj
 0001:00001ab0       ?erase@?$basic_string@DU?$char_traits@D@std@@V?$allocator@D@2@@std@@$$FQAEAAV12@I@Z 00402ab0 f i classroomlist.obj
 0001:00001ae8       ?erase@?$basic_string@DU?$char_traits@D@std@@V?$allocator@D@2@@std@@$$FQAEAAV12@II@Z 00402ae8 f i classroomlist.obj
 0001:00001b70       ?max_size@?$basic_string@DU?$char_traits@D@std@@V?$allocator@D@2@@std@@$$FQBEIXZ 00402b70 f i classroomlist.obj
 0001:00001b80       ?_Copy@?$basic_string@DU?$char_traits@D@std@@V?$allocator@D@2@@std@@$$FQAEXII@Z 00402b80 f i classroomlist.obj
 0001:00001df8       ??1?$basic_string@DU?$char_traits@D@std@@V?$allocator@D@2@@std@@$$FQAE@XZ 00402df8 f i classroomlist.obj
 0001:00001e10       ?_Grow@?$basic_string@DU?$char_traits@D@std@@V?$allocator@D@2@@std@@$$FQAE_NI_N@Z 00402e10 f i classroomlist.obj
 0001:00001e88       ?<MarshalDestroy>@?$basic_string@DU?$char_traits@D@std@@V?$allocator@D@2@@std@@$$FSMXPAV12@@Z 00402e88 f i classroomlist.obj
 0001:00001e9d       __t2m@?<MarshalDestroy>@?$basic_string@DU?$char_traits@D@std@@V?$allocator@D@2@@std@@SMXPAV12@@Z 00402e9d f i classroomlist.obj
 0001:00001ea4       ?assign@?$basic_string@DU?$char_traits@D@std@@V?$allocator@D@2@@std@@$$FQAEAAV12@ABV12@II@Z 00402ea4 f i classroomlist.obj
 0001:00001f60       ??0?$basic_string@DU?$char_traits@D@std@@V?$allocator@D@2@@std@@$$FQAE@ABV01@@Z 00402f60 f i classroomlist.obj
 0001:00001f8c       __t2m@??0?$basic_string@DU?$char_traits@D@std@@V?$allocator@D@2@@std@@QAE@ABV01@@Z 00402f8c f i classroomlist.obj
 0001:00001f94       ?<MarshalCopy>@?$basic_string@DU?$char_traits@D@std@@V?$allocator@D@2@@std@@$$FSMXPAV12@0@Z 00402f94 f i classroomlist.obj
 0001:00001fbf       __t2m@?<MarshalCopy>@?$basic_string@DU?$char_traits@D@std@@V?$allocator@D@2@@std@@SMXPAV12@0@Z 00402fbf f i classroomlist.obj
 0001:00001fc5       __t2m@??2@YAPAXIPAX@Z      00402fc5 f i classroomlist.obj
 0001:00001fcb       __t2m@??3@YAXPAX0@Z        00402fcb f i classroomlist.obj
 0001:00001fd1       __t2m@?copy@?$char_traits@D@std@@SAPADPADPBDI@Z 00402fd1 f i classroomlist.obj
 0001:00001fd7       __t2m@?move@?$char_traits@D@std@@SAPADPADPBDI@Z 00402fd7 f i classroomlist.obj
 0001:00001fdd       __t2m@?assign@?$char_traits@D@std@@SAXAADABD@Z 00402fdd f i classroomlist.obj
 0001:00001fe3       __t2m@?_Adopt@_Iterator_base12@std@@QAEXPBU_Container_base12@2@@Z 00402fe3 f i classroomlist.obj
 0001:00001fe9       __t2m@??1runtime_error@std@@UAE@XZ 00402fe9 f i classroomlist.obj
 0001:00001ff0       ??_Eruntime_error@std@@$$FUAEPAXI@Z 00402ff0 f i classroomlist.obj
 0001:00002038       ??_Eruntime_error@std@@UAEPAXI@Z 00403038 f i classroomlist.obj
 0001:00002038       __t2m@??_Eruntime_error@std@@UAEPAXI@Z 00403038 f i classroomlist.obj
 0001:0000203e       __t2m@??0error_category@std@@QAE@XZ 0040303e f i classroomlist.obj
 0001:00002044       ??_Eerror_category@std@@$$FUAEPAXI@Z 00403044 f i classroomlist.obj
 0001:00002089       ??_Eerror_category@std@@UAEPAXI@Z 00403089 f i classroomlist.obj
 0001:00002089       __t2m@??_Eerror_category@std@@UAEPAXI@Z 00403089 f i classroomlist.obj
 0001:00002090       ?default_error_condition@error_category@std@@$$FUBE?AVerror_condition@2@H@Z 00403090 f i classroomlist.obj
 0001:000020a8       ??0error_condition@std@@$$FQAE@HABVerror_category@1@@Z 004030a8 f i classroomlist.obj
 0001:000020be       ?default_error_condition@error_category@std@@UBE?AVerror_condition@2@H@Z 004030be f i classroomlist.obj
 0001:000020be       __t2m@?default_error_condition@error_category@std@@UBE?AVerror_condition@2@H@Z 004030be f i classroomlist.obj
 0001:000020c4       ?equivalent@error_category@std@@$$FUBE_NABVerror_code@2@H@Z 004030c4 f i classroomlist.obj
 0001:000020e8       ??8error_category@std@@$$FQBE_NABV01@@Z 004030e8 f i classroomlist.obj
 0001:000020fc       ?value@error_code@std@@$$FQBEHXZ 004030fc f i classroomlist.obj
 0001:0000210c       ?category@error_code@std@@$$FQBEABVerror_category@2@XZ 0040310c f i classroomlist.obj
 0001:0000211d       __t2m@?equivalent@error_category@std@@UBE_NABVerror_code@2@H@Z 0040311d f i classroomlist.obj
 0001:0000211d       ?equivalent@error_category@std@@UBE_NABVerror_code@2@H@Z 0040311d f i classroomlist.obj
 0001:00002124       ?equivalent@error_category@std@@$$FUBE_NHABVerror_condition@2@@Z 00403124 f i classroomlist.obj
 0001:00002148       ??8error_condition@std@@$$FQBE_NABV01@@Z 00403148 f i classroomlist.obj
 0001:00002170       ?value@error_condition@std@@$$FQBEHXZ 00403170 f i classroomlist.obj
 0001:00002180       ?category@error_condition@std@@$$FQBEABVerror_category@2@XZ 00403180 f i classroomlist.obj
 0001:00002191       __t2m@?equivalent@error_category@std@@UBE_NHABVerror_condition@2@@Z 00403191 f i classroomlist.obj
 0001:00002191       ?equivalent@error_category@std@@UBE_NHABVerror_condition@2@@Z 00403191 f i classroomlist.obj
 0001:00002197       __t2m@??1error_category@std@@UAE@XZ 00403197 f i classroomlist.obj
 0001:0000219d       __t2m@??1_System_error@std@@UAE@XZ 0040319d f i classroomlist.obj
 0001:000021a3       __t2m@??1system_error@std@@UAE@XZ 004031a3 f i classroomlist.obj
 0001:000021a9       __t2m@??0_Generic_error_category@std@@QAE@XZ 004031a9 f i classroomlist.obj
 0001:000021b0       ??_E_Generic_error_category@std@@$$FUAEPAXI@Z 004031b0 f i classroomlist.obj
 0001:000021f8       __t2m@??_E_Generic_error_category@std@@UAEPAXI@Z 004031f8 f i classroomlist.obj
 0001:000021f8       ??_E_Generic_error_category@std@@UAEPAXI@Z 004031f8 f i classroomlist.obj
 0001:00002200       ?name@_Generic_error_category@std@@$$FUBEPBDXZ 00403200 f i classroomlist.obj
 0001:00002212       __t2m@?name@_Generic_error_category@std@@UBEPBDXZ 00403212 f i classroomlist.obj
 0001:00002212       ?name@_Generic_error_category@std@@UBEPBDXZ 00403212 f i classroomlist.obj
 0001:00002218       ?message@_Generic_error_category@std@@$$FUBE?AV?$basic_string@DU?$char_traits@D@std@@V?$allocator@D@2@@2@H@Z 00403218 f i classroomlist.obj
 0001:00002280       ??0?$basic_string@DU?$char_traits@D@std@@V?$allocator@D@2@@std@@$$FQAE@PBD@Z 00403280 f i classroomlist.obj
 0001:000022c4       ?assign@?$basic_string@DU?$char_traits@D@std@@V?$allocator@D@2@@std@@$$FQAEAAV12@PBD@Z 004032c4 f i classroomlist.obj
 0001:000022f0       ?length@?$char_traits@D@std@@$$FSAIPBD@Z 004032f0 f i classroomlist.obj
 0001:00002314       ?assign@?$basic_string@DU?$char_traits@D@std@@V?$allocator@D@2@@std@@$$FQAEAAV12@PBDI@Z 00403314 f i classroomlist.obj
 0001:000023a8       ?_Inside@?$basic_string@DU?$char_traits@D@std@@V?$allocator@D@2@@std@@$$FQAE_NPBD@Z 004033a8 f i classroomlist.obj
 0001:000023e7       __t2m@?message@_Generic_error_category@std@@UBE?AV?$basic_string@DU?$char_traits@D@std@@V?$allocator@D@2@@2@H@Z 004033e7 f i classroomlist.obj
 0001:000023e7       ?message@_Generic_error_category@std@@UBE?AV?$basic_string@DU?$char_traits@D@std@@V?$allocator@D@2@@2@H@Z 004033e7 f i classroomlist.obj
 0001:000023ed       __t2m@??1_Generic_error_category@std@@UAE@XZ 004033ed f i classroomlist.obj
 0001:000023f3       __t2m@??0_Iostream_error_category@std@@QAE@XZ 004033f3 f i classroomlist.obj
 0001:000023fc       ??_E_Iostream_error_category@std@@$$FUAEPAXI@Z 004033fc f i classroomlist.obj
 0001:00002444       ??_E_Iostream_error_category@std@@UAEPAXI@Z 00403444 f i classroomlist.obj
 0001:00002444       __t2m@??_E_Iostream_error_category@std@@UAEPAXI@Z 00403444 f i classroomlist.obj
 0001:0000244c       ?name@_Iostream_error_category@std@@$$FUBEPBDXZ 0040344c f i classroomlist.obj
 0001:0000245e       ?name@_Iostream_error_category@std@@UBEPBDXZ 0040345e f i classroomlist.obj
 0001:0000245e       __t2m@?name@_Iostream_error_category@std@@UBEPBDXZ 0040345e f i classroomlist.obj
 0001:00002464       ?message@_Iostream_error_category@std@@$$FUBE?AV?$basic_string@DU?$char_traits@D@std@@V?$allocator@D@2@@2@H@Z 00403464 f i classroomlist.obj
 0001:000024fc       ?message@_Iostream_error_category@std@@UBE?AV?$basic_string@DU?$char_traits@D@std@@V?$allocator@D@2@@2@H@Z 004034fc f i classroomlist.obj
 0001:000024fc       __t2m@?message@_Iostream_error_category@std@@UBE?AV?$basic_string@DU?$char_traits@D@std@@V?$allocator@D@2@@2@H@Z 004034fc f i classroomlist.obj
 0001:00002502       __t2m@??1_Iostream_error_category@std@@UAE@XZ 00403502 f i classroomlist.obj
 0001:00002508       __t2m@??0_System_error_category@std@@QAE@XZ 00403508 f i classroomlist.obj
 0001:00002510       ??_E_System_error_category@std@@$$FUAEPAXI@Z 00403510 f i classroomlist.obj
 0001:00002558       ??_E_System_error_category@std@@UAEPAXI@Z 00403558 f i classroomlist.obj
 0001:00002558       __t2m@??_E_System_error_category@std@@UAEPAXI@Z 00403558 f i classroomlist.obj
 0001:00002560       ?name@_System_error_category@std@@$$FUBEPBDXZ 00403560 f i classroomlist.obj
 0001:00002572       __t2m@?name@_System_error_category@std@@UBEPBDXZ 00403572 f i classroomlist.obj
 0001:00002572       ?name@_System_error_category@std@@UBEPBDXZ 00403572 f i classroomlist.obj
 0001:00002578       ?message@_System_error_category@std@@$$FUBE?AV?$basic_string@DU?$char_traits@D@std@@V?$allocator@D@2@@2@H@Z 00403578 f i classroomlist.obj
 0001:000025e0       ?message@_System_error_category@std@@UBE?AV?$basic_string@DU?$char_traits@D@std@@V?$allocator@D@2@@2@H@Z 004035e0 f i classroomlist.obj
 0001:000025e0       __t2m@?message@_System_error_category@std@@UBE?AV?$basic_string@DU?$char_traits@D@std@@V?$allocator@D@2@@2@H@Z 004035e0 f i classroomlist.obj
 0001:000025e8       ?default_error_condition@_System_error_category@std@@$$FUBE?AVerror_condition@2@H@Z 004035e8 f i classroomlist.obj
 0001:00002618       ?generic_category@std@@$$FYAABVerror_category@1@XZ 00403618 f i classroomlist.obj
 0001:0000262c       ?system_category@std@@$$FYAABVerror_category@1@XZ 0040362c f i classroomlist.obj
 0001:0000263e       __t2m@?default_error_condition@_System_error_category@std@@UBE?AVerror_condition@2@H@Z 0040363e f i classroomlist.obj
 0001:0000263e       ?default_error_condition@_System_error_category@std@@UBE?AVerror_condition@2@H@Z 0040363e f i classroomlist.obj
 0001:00002644       __t2m@??1_System_error_category@std@@UAE@XZ 00403644 f i classroomlist.obj
 0001:0000264c       ??_E_System_error@std@@$$FUAEPAXI@Z 0040364c f i classroomlist.obj
 0001:00002694       __t2m@??_E_System_error@std@@UAEPAXI@Z 00403694 f i classroomlist.obj
 0001:00002694       ??_E_System_error@std@@UAEPAXI@Z 00403694 f i classroomlist.obj
 0001:0000269a       __t2m@?size@?$basic_string@DU?$char_traits@D@std@@V?$allocator@D@2@@std@@QBEIXZ 0040369a f i classroomlist.obj
 0001:000026a0       __t2m@??0?$allocator@D@std@@QAE@XZ 004036a0 f i classroomlist.obj
 0001:000026a6       __t2m@?_Xlen@?$basic_string@DU?$char_traits@D@std@@V?$allocator@D@2@@std@@QBEXXZ 004036a6 f i classroomlist.obj
 0001:000026ac       __t2m@?_Xran@?$basic_string@DU?$char_traits@D@std@@V?$allocator@D@2@@std@@QBEXXZ 004036ac f i classroomlist.obj
 0001:000026b2       __t2m@??0?$_Wrap_alloc@V?$allocator@D@std@@@std@@QAE@XZ 004036b2 f i classroomlist.obj
 0001:000026b8       __t2m@??0?$_String_val@U?$_Simple_types@D@std@@@std@@QAE@XZ 004036b8 f i classroomlist.obj
 0001:000026be       __t2m@?deallocate@?$allocator@D@std@@QAEXPADI@Z 004036be f i classroomlist.obj
 0001:000026c4       __t2m@?max_size@?$allocator@D@std@@QBEIXZ 004036c4 f i classroomlist.obj
 0001:000026ca       __t2m@??$addressof@D@std@@YAPADAAD@Z 004036ca f i classroomlist.obj
 0001:000026d0       __t2m@??$_Allocate@D@std@@YAPADIPAD@Z 004036d0 f i classroomlist.obj
 0001:000026d6       __t2m@??$forward@AAPAD@std@@YAAAPADAAPAD@Z 004036d6 f i classroomlist.obj
 0001:000026dc       __t2m@??$construct@PADAAPAD@?$allocator@D@std@@QAEXPAPADAAPAD@Z 004036dc f i classroomlist.obj
 0001:000026e2       __t2m@??$destroy@PAD@?$allocator@D@std@@QAEXPAPAD@Z 004036e2 f i classroomlist.obj
 0001:000026e8       __t2m@??4_Iterator_base12@std@@QAEAAU01@ABU01@@Z 004036e8 f i classroomlist.obj
 0001:000026f0       ??_Esystem_error@std@@$$FUAEPAXI@Z 004036f0 f i classroomlist.obj
 0001:00002738       __t2m@??_Esystem_error@std@@UAEPAXI@Z 00403738 f i classroomlist.obj
 0001:00002738       ??_Esystem_error@std@@UAEPAXI@Z 00403738 f i classroomlist.obj
 0001:0000273e       __t2m@??0?$_String_alloc@$0A@U?$_String_base_types@DV?$allocator@D@std@@@std@@@std@@QAE@ABV?$allocator@D@1@@Z 0040373e f i classroomlist.obj
 0001:00002744       __t2m@?_Getal@?$_String_alloc@$0A@U?$_String_base_types@DV?$allocator@D@std@@@std@@@std@@QBE?AU?$_Wrap_alloc@V?$allocator@D@std@@@2@XZ 00403744 f i classroomlist.obj
 0001:0000274a       __t2m@?_Myptr@?$_String_val@U?$_Simple_types@D@std@@@std@@QBEPBDXZ 0040374a f i classroomlist.obj
 0001:00002750       __t2m@??0?$_Wrap_alloc@V?$allocator@D@std@@@std@@QAE@ABV?$allocator@D@1@@Z 00403750 f i classroomlist.obj
 0001:00002756       __t2m@?deallocate@?$_Wrap_alloc@V?$allocator@D@std@@@std@@QAEXPADI@Z 00403756 f i classroomlist.obj
 0001:0000275c       __t2m@?_Myptr@?$_String_val@U?$_Simple_types@D@std@@@std@@QAEPADXZ 0040375c f i classroomlist.obj
 0001:00002762       __t2m@?select_on_container_copy_construction@?$allocator@D@std@@QBE?AV12@XZ 00403762 f i classroomlist.obj
 0001:00002768       __t2m@?allocate@?$allocator@D@std@@QAEPADI@Z 00403768 f i classroomlist.obj
 0001:0000276e       __t2m@?max_size@?$allocator_traits@V?$allocator@D@std@@@std@@SAIABV?$allocator@D@2@@Z 0040376e f i classroomlist.obj
 0001:00002774       __t2m@??$construct@PADAAPAD@?$allocator_traits@V?$allocator@D@std@@@std@@SAXAAV?$allocator@D@1@PAPADAAPAD@Z 00403774 f i classroomlist.obj
 0001:0000277a       __t2m@??$destroy@PAD@?$allocator_traits@V?$allocator@D@std@@@std@@SAXAAV?$allocator@D@1@PAPAD@Z 0040377a f i classroomlist.obj
 0001:00002780       ??_Efailure@ios_base@std@@$$FUAEPAXI@Z 00403780 f i classroomlist.obj
 0001:000027c8       ??1failure@ios_base@std@@$$FUAE@XZ 004037c8 f i classroomlist.obj
 0001:000027dc       __t2m@??_Efailure@ios_base@std@@UAEPAXI@Z 004037dc f i classroomlist.obj
 0001:000027dc       ??_Efailure@ios_base@std@@UAEPAXI@Z 004037dc f i classroomlist.obj
 0001:000027e2       __t2m@?_Eos@?$basic_string@DU?$char_traits@D@std@@V?$allocator@D@2@@std@@QAEXI@Z 004037e2 f i classroomlist.obj
 0001:000027e8       __t2m@?select_on_container_copy_construction@?$allocator_traits@V?$allocator@D@std@@@std@@SA?AV?$allocator@D@2@ABV32@@Z 004037e8 f i classroomlist.obj
 0001:000027ee       __t2m@?allocate@?$_Wrap_alloc@V?$allocator@D@std@@@std@@QAEPADI@Z 004037ee f i classroomlist.obj
 0001:000027f4       __t2m@?max_size@?$_Wrap_alloc@V?$allocator@D@std@@@std@@QBEIXZ 004037f4 f i classroomlist.obj
 0001:000027fa       __t2m@??$construct@PADAAPAD@?$_Wrap_alloc@V?$allocator@D@std@@@std@@QAEXPAPADAAPAD@Z 004037fa f i classroomlist.obj
 0001:00002800       __t2m@??$destroy@PAD@?$_Wrap_alloc@V?$allocator@D@std@@@std@@QAEXPAPAD@Z 00403800 f i classroomlist.obj
 0001:00002806       __t2m@?_Tidy@?$basic_string@DU?$char_traits@D@std@@V?$allocator@D@2@@std@@QAEX_NI@Z 00403806 f i classroomlist.obj
 0001:0000280c       __t2m@?select_on_container_copy_construction@?$_Wrap_alloc@V?$allocator@D@std@@@std@@QBE?AU12@XZ 0040380c f i classroomlist.obj
 0001:00002812       __t2m@?erase@?$basic_string@DU?$char_traits@D@std@@V?$allocator@D@2@@std@@QAEAAV12@I@Z 00403812 f i classroomlist.obj
 0001:00002818       __t2m@?erase@?$basic_string@DU?$char_traits@D@std@@V?$allocator@D@2@@std@@QAEAAV12@II@Z 00403818 f i classroomlist.obj
 0001:0000281e       __t2m@?max_size@?$basic_string@DU?$char_traits@D@std@@V?$allocator@D@2@@std@@QBEIXZ 0040381e f i classroomlist.obj
 0001:00002824       __t2m@?_Copy@?$basic_string@DU?$char_traits@D@std@@V?$allocator@D@2@@std@@QAEXII@Z 00403824 f i classroomlist.obj
 0001:0000282a       __t2m@??1?$basic_string@DU?$char_traits@D@std@@V?$allocator@D@2@@std@@QAE@XZ 0040382a f i classroomlist.obj
 0001:00002830       __t2m@?_Grow@?$basic_string@DU?$char_traits@D@std@@V?$allocator@D@2@@std@@QAE_NI_N@Z 00403830 f i classroomlist.obj
 0001:00002836       __t2m@?assign@?$basic_string@DU?$char_traits@D@std@@V?$allocator@D@2@@std@@QAEAAV12@ABV12@II@Z 00403836 f i classroomlist.obj
 0001:0000283c       __t2m@??0error_condition@std@@QAE@HABVerror_category@1@@Z 0040383c f i classroomlist.obj
 0001:00002842       __t2m@??8error_category@std@@QBE_NABV01@@Z 00403842 f i classroomlist.obj
 0001:00002848       __t2m@?value@error_code@std@@QBEHXZ 00403848 f i classroomlist.obj
 0001:0000284e       __t2m@?category@error_code@std@@QBEABVerror_category@2@XZ 0040384e f i classroomlist.obj
 0001:00002854       __t2m@??8error_condition@std@@QBE_NABV01@@Z 00403854 f i classroomlist.obj
 0001:0000285a       __t2m@?value@error_condition@std@@QBEHXZ 0040385a f i classroomlist.obj
 0001:00002860       __t2m@?category@error_condition@std@@QBEABVerror_category@2@XZ 00403860 f i classroomlist.obj
 0001:00002866       __t2m@??0?$basic_string@DU?$char_traits@D@std@@V?$allocator@D@2@@std@@QAE@PBD@Z 00403866 f i classroomlist.obj
 0001:0000286c       __t2m@?assign@?$basic_string@DU?$char_traits@D@std@@V?$allocator@D@2@@std@@QAEAAV12@PBD@Z 0040386c f i classroomlist.obj
 0001:00002872       __t2m@?length@?$char_traits@D@std@@SAIPBD@Z 00403872 f i classroomlist.obj
 0001:00002878       __t2m@?assign@?$basic_string@DU?$char_traits@D@std@@V?$allocator@D@2@@std@@QAEAAV12@PBDI@Z 00403878 f i classroomlist.obj
 0001:0000287e       __t2m@?_Inside@?$basic_string@DU?$char_traits@D@std@@V?$allocator@D@2@@std@@QAE_NPBD@Z 0040387e f i classroomlist.obj
 0001:00002884       __t2m@?generic_category@std@@YAABVerror_category@1@XZ 00403884 f i classroomlist.obj
 0001:0000288a       __t2m@?system_category@std@@YAABVerror_category@1@XZ 0040388a f i classroomlist.obj
 0001:00002890       __t2m@??1failure@ios_base@std@@UAE@XZ 00403890 f i classroomlist.obj
 0001:00002898       ??0User@@$$FQ$AAM@XZ       00403898 f i CourseList.obj
 0001:000028ac       ??0Student_data@@$$FQ$AAM@XZ 004038ac f i CourseList.obj
 0001:000028c0       ??1CourseList@CS346_A2@@$$FA$AAM@XZ 004038c0 f i CourseList.obj
 0001:000028e0       ?get_coursetable@CourseList@CS346_A2@@$$FQ$AAMXP$AAVString@System@@@Z 004038e0 f i CourseList.obj
 0001:00002a24       ?comboBox1_SelectedIndexChanged@CourseList@CS346_A2@@$$FA$AAMXP$AAVObject@System@@P$AAVEventArgs@4@@Z 00403a24 f i CourseList.obj
 0001:00002a48       ?btnAssign_Click@CourseList@CS346_A2@@$$FA$AAMXP$AAVObject@System@@P$AAVEventArgs@4@@Z 00403a48 f i CourseList.obj
 0001:00002c84       ?FillFacultyComboBox@CourseList@CS346_A2@@$$FQ$AAMXXZ 00403c84 f i CourseList.obj
 0001:00002d14       ?label1_Click@CourseList@CS346_A2@@$$FA$AAMXP$AAVObject@System@@P$AAVEventArgs@4@@Z 00403d14 f i CourseList.obj
 0001:00002d24       ?<Dispose>@CourseList@CS346_A2@@$$FM$AAMX_N@Z 00403d24 f i CourseList.obj
 0001:00002d68       ?InitializeComponent@CourseList@CS346_A2@@$$FA$AAMXXZ 00403d68 f i CourseList.obj
 0001:000035e0       ??0CourseList@CS346_A2@@$$FQ$AAM@XZ 004045e0 f i CourseList.obj
 0001:00003628       ??1ExamSchedule@CS346_A2@@$$FA$AAM@XZ 00404628 f i ExamSchedule.obj
 0001:00003648       ?get_examschedule@ExamSchedule@CS346_A2@@$$FQ$AAMXHP$AAVUser@@@Z 00404648 f i ExamSchedule.obj
 0001:000037c0       ?TimeTableView_Load@ExamSchedule@CS346_A2@@$$FA$AAMXP$AAVObject@System@@P$AAVEventArgs@4@@Z 004047c0 f i ExamSchedule.obj
 0001:000037d0       ?comboBox1_SelectedIndexChanged@ExamSchedule@CS346_A2@@$$FA$AAMXP$AAVObject@System@@P$AAVEventArgs@4@@Z 004047d0 f i ExamSchedule.obj
 0001:000037f4       ?ExamSchedule_Load@ExamSchedule@CS346_A2@@$$FA$AAMXP$AAVObject@System@@P$AAVEventArgs@4@@Z 004047f4 f i ExamSchedule.obj
 0001:00003804       ?<Dispose>@ExamSchedule@CS346_A2@@$$FM$AAMX_N@Z 00404804 f i ExamSchedule.obj
 0001:00003848       ?InitializeComponent@ExamSchedule@CS346_A2@@$$FA$AAMXXZ 00404848 f i ExamSchedule.obj
 0001:00003ca4       ??0ExamSchedule@CS346_A2@@$$FQ$AAM@P$AAVUser@@@Z 00404ca4 f i ExamSchedule.obj
 0001:00003cec       ?algorithm@TimeTable@@$$FSMXP$AAVString@System@@0P$01AP$AAV23@0@Z 00404cec f i permissions.obj
 0001:00003e68       ?algorithmForLab@TimeTable@@$$FSMXP$AAVString@System@@0P$01AP$AAV23@0@Z 00404e68 f i permissions.obj
 0001:00003fdc       ?fillElectiveRoom@TimeTable@@$$FSMXP$AAVString@System@@@Z 00404fdc f i permissions.obj
 0001:000040f4       ?allocateSlots@TimeTable@@$$FSMXXZ 004050f4 f i permissions.obj
 0001:000043b4       ??0TimeTable@@$$FQ$AAM@XZ  004053b4 f i permissions.obj
 0001:000043c8       ?fetchSeating@SeatingHelper@@$$FSMP$AAVSqlDataReader@SqlClient@Data@System@@P$AAVString@5@@Z 004053c8 f i permissions.obj
 0001:00004434       ??0SeatingHelper@@$$FQ$AAM@XZ 00405434 f i permissions.obj
 0001:00004448       ??1permissions@CS346_A2@@$$FA$AAM@XZ 00405448 f i permissions.obj
 0001:00004468       ?fetch@permissions@CS346_A2@@$$FQ$AAMXXZ 00405468 f i permissions.obj
 0001:0000468c       ?permissions_Load@permissions@CS346_A2@@$$FA$AAMXP$AAVObject@System@@P$AAVEventArgs@4@@Z 0040568c f i permissions.obj
 0001:000046a0       ?panel1_Paint@permissions@CS346_A2@@$$FA$AAMXP$AAVObject@System@@P$AAVPaintEventArgs@Forms@Windows@4@@Z 004056a0 f i permissions.obj
 0001:000046b0       ?button2_Click@permissions@CS346_A2@@$$FA$AAMXP$AAVObject@System@@P$AAVEventArgs@4@@Z 004056b0 f i permissions.obj
 0001:0000473c       ?button1_Click@permissions@CS346_A2@@$$FA$AAMXP$AAVObject@System@@P$AAVEventArgs@4@@Z 0040573c f i permissions.obj
 0001:000047c8       ?button3_Click@permissions@CS346_A2@@$$FA$AAMXP$AAVObject@System@@P$AAVEventArgs@4@@Z 004057c8 f i permissions.obj
 0001:00004854       ?button5_Click@permissions@CS346_A2@@$$FA$AAMXP$AAVObject@System@@P$AAVEventArgs@4@@Z 00405854 f i permissions.obj
 0001:000048d8       ?button6_Click@permissions@CS346_A2@@$$FA$AAMXP$AAVObject@System@@P$AAVEventArgs@4@@Z 004058d8 f i permissions.obj
 0001:0000495c       ?button7_Click@permissions@CS346_A2@@$$FA$AAMXP$AAVObject@System@@P$AAVEventArgs@4@@Z 0040595c f i permissions.obj
 0001:000049a4       ?button8_Click@permissions@CS346_A2@@$$FA$AAMXP$AAVObject@System@@P$AAVEventArgs@4@@Z 004059a4 f i permissions.obj
 0001:000049b4       ?button4_Click@permissions@CS346_A2@@$$FA$AAMXP$AAVObject@System@@P$AAVEventArgs@4@@Z 004059b4 f i permissions.obj
 0001:000049c4       ?button9_Click@permissions@CS346_A2@@$$FA$AAMXP$AAVObject@System@@P$AAVEventArgs@4@@Z 004059c4 f i permissions.obj
 0001:00004a0c       ?<Dispose>@permissions@CS346_A2@@$$FM$AAMX_N@Z 00405a0c f i permissions.obj
 0001:00004a50       ?InitializeComponent@permissions@CS346_A2@@$$FA$AAMXXZ 00405a50 f i permissions.obj
 0001:00005790       ??0permissions@CS346_A2@@$$FQ$AAM@XZ 00406790 f i permissions.obj
 0001:00005818       ??1Queries_Admin@CS346_A2@@$$FA$AAM@XZ 00406818 f i Queries_Admin.obj
 0001:00005838       ?get_Queries@Queries_Admin@CS346_A2@@$$FQ$AAMXXZ 00406838 f i Queries_Admin.obj
 0001:00005940       ?Resolve_query@Queries_Admin@CS346_A2@@$$FQ$AAMXXZ 00406940 f i Queries_Admin.obj
 0001:00005aec       ?Queries_Admin_Load@Queries_Admin@CS346_A2@@$$FA$AAMXP$AAVObject@System@@P$AAVEventArgs@4@@Z 00406aec f i Queries_Admin.obj
 0001:00005b00       ?button1_Click@Queries_Admin@CS346_A2@@$$FA$AAMXP$AAVObject@System@@P$AAVEventArgs@4@@Z 00406b00 f i Queries_Admin.obj
 0001:00005b10       ?button2_Click@Queries_Admin@CS346_A2@@$$FA$AAMXP$AAVObject@System@@P$AAVEventArgs@4@@Z 00406b10 f i Queries_Admin.obj
 0001:00005b2c       ?<Dispose>@Queries_Admin@CS346_A2@@$$FM$AAMX_N@Z 00406b2c f i Queries_Admin.obj
 0001:00005b70       ?InitializeComponent@Queries_Admin@CS346_A2@@$$FA$AAMXXZ 00406b70 f i Queries_Admin.obj
 0001:00006018       ??0Queries_Admin@CS346_A2@@$$FQ$AAM@P$AAVUser@@@Z 00407018 f i Queries_Admin.obj
 0001:00006060       ??1Queries_User@CS346_A2@@$$FA$AAM@XZ 00407060 f i Queries_User.obj
 0001:00006080       ?add_complaint@Queries_User@CS346_A2@@$$FQ$AAMXP$AAVUser@@@Z 00407080 f i Queries_User.obj
 0001:0000613c       ?get_Queries@Queries_User@CS346_A2@@$$FQ$AAMXP$AAVUser@@@Z 0040713c f i Queries_User.obj
 0001:00006260       ?Queries_User_Load@Queries_User@CS346_A2@@$$FA$AAMXP$AAVObject@System@@P$AAVEventArgs@4@@Z 00407260 f i Queries_User.obj
 0001:0000627c       ?button1_Click@Queries_User@CS346_A2@@$$FA$AAMXP$AAVObject@System@@P$AAVEventArgs@4@@Z 0040727c f i Queries_User.obj
 0001:000062a4       ?<Dispose>@Queries_User@CS346_A2@@$$FM$AAMX_N@Z 004072a4 f i Queries_User.obj
 0001:000062e8       ?InitializeComponent@Queries_User@CS346_A2@@$$FA$AAMXXZ 004072e8 f i Queries_User.obj
 0001:000066b0       ??0Queries_User@CS346_A2@@$$FQ$AAM@P$AAVUser@@@Z 004076b0 f i Queries_User.obj
 0001:000066f8       ?CheckError@_com_util@@$$FYAXJ@Z 004076f8 f i Root.obj
 0001:00006710       ?AddRef@Data_t@_bstr_t@@$$FQAEKXZ 00407710 f i Root.obj
 0001:0000672c       ??0_variant_t@@$$FQAE@ABV0@@Z 0040772c f i Root.obj
 0001:00006752       __t2m@??0_variant_t@@QAE@ABV0@@Z 00407752 f i Root.obj
 0001:00006758       ??0_com_error@@$$FQAE@ABV0@@Z 00407758 f i Root.obj
 0001:00006797       __t2m@??0_com_error@@QAE@ABV0@@Z 00407797 f i Root.obj
 0001:000067a0       ?assign@?$char_traits@D@std@@$$FSAPADPADID@Z 004077a0 f i Root.obj
 0001:000067b8       ?PtrToStringChars@@$$FYMP$CB_WP$ABVString@System@@@Z 004077b8 f i Root.obj
 0001:000067d4       ?GetAnsiStringSize@details@interop@msclr@@$$FYMIP$AAVString@System@@@Z 004077d4 f i Root.obj
 0001:00006820       ?WriteAnsiString@details@interop@msclr@@$$FYMXPADIP$AAVString@System@@@Z 00407820 f i Root.obj
 0001:00006884       ??0context_node_base@interop@msclr@@$$FQ$AAM@XZ 00407884 f i Root.obj
 0001:00006898       ?.cctor@context_node_base@interop@msclr@@$$FSMXXZ 00407898 f i Root.obj
 0001:000068ac       ??0marshal_context@interop@msclr@@$$FQ$AAM@XZ 004078ac f i Root.obj
 0001:000068cc       ??1marshal_context@interop@msclr@@$$FA$AAM@XZ 004078cc f i Root.obj
 0001:00006910       ?<Dispose>@marshal_context@interop@msclr@@$$FM$AAMX_N@Z 00407910 f i Root.obj
 0001:00006930       ?<Finalizer>@?$context_node@PBDP$AAVString@System@@@interop@msclr@@$$FA$AAMXXZ 00407930 f i Root.obj
 0001:00006948       ??0?$context_node@PB_WP$AAVString@System@@@interop@msclr@@$$FQ$AAM@AAPB_WP$AAVString@System@@@Z 00407948 f i Root.obj
 0001:00006978       ?<Finalizer>@?$context_node@PB_WP$AAVString@System@@@interop@msclr@@$$FA$AAMXXZ 00407978 f i Root.obj
 0001:000069ac       ?FormatString@MiscellaneousFunctions@@$$FSMP$AAVString@System@@H@Z 004079ac f i Root.obj
 0001:000069cc       ?generateUserIdProf@MiscellaneousFunctions@@$$FSMP$AAVString@System@@P$AAV23@@Z 004079cc f i Root.obj
 0001:00006a34       ?generateUserIdStudent@MiscellaneousFunctions@@$$FSMP$AAVString@System@@P$AAV23@@Z 00407a34 f i Root.obj
 0001:00006aa4       ??0MiscellaneousFunctions@@$$FQ$AAM@XZ 00407aa4 f i Root.obj
 0001:00006ab8       ??1Student_Profile@CS346_A2@@$$FA$AAM@XZ 00407ab8 f i Root.obj
 0001:00006ad8       ?pictureBox1_Click@Student_Profile@CS346_A2@@$$FA$AAMXP$AAVObject@System@@P$AAVEventArgs@4@@Z 00407ad8 f i Root.obj
 0001:00006ae8       ?ImageToByteArray@Student_Profile@CS346_A2@@$$FQ$AAMP$01AEP$AAVImage@Drawing@System@@@Z 00407ae8 f i Root.obj
 0001:00006b10       ?Upload_Profile_Photo@Student_Profile@CS346_A2@@$$FQ$AAMXP$AAVUser@@P$AAVImage@Drawing@System@@@Z 00407b10 f i Root.obj
 0001:00006ba4       ?profile_photo_fetch@Student_Profile@CS346_A2@@$$FQ$AAMXP$AAVUser@@@Z 00407ba4 f i Root.obj
 0001:00006c84       ?UploadImageToDatabase@Student_Profile@CS346_A2@@$$FQ$AAMXP$01AEH@Z 00407c84 f i Root.obj
 0001:00006d68       ?textBox1_TextChanged@Student_Profile@CS346_A2@@$$FA$AAMXP$AAVObject@System@@P$AAVEventArgs@4@@Z 00407d68 f i Root.obj
 0001:00006d78       ?label11_Click@Student_Profile@CS346_A2@@$$FA$AAMXP$AAVObject@System@@P$AAVEventArgs@4@@Z 00407d78 f i Root.obj
 0001:00006d88       ?<Dispose>@Student_Profile@CS346_A2@@$$FM$AAMX_N@Z 00407d88 f i Root.obj
 0001:00006dcc       ??1Welcome_Pic@CS346_A2@@$$FA$AAM@XZ 00407dcc f i Root.obj
 0001:00006dec       ?InitializeComponent@Welcome_Pic@CS346_A2@@$$FA$AAMXXZ 00407dec f i Root.obj
 0001:000070ac       ?<Dispose>@Welcome_Pic@CS346_A2@@$$FM$AAMX_N@Z 004080ac f i Root.obj
 0001:000070f0       ??1Course_EnrollPage@CS346_A2@@$$FA$AAM@XZ 004080f0 f i Root.obj
 0001:00007110       ?retrieve_semester@Course_EnrollPage@CS346_A2@@$$FA$AAMHXZ 00408110 f i Root.obj
 0001:00007194       ?retrieve_year@Course_EnrollPage@CS346_A2@@$$FA$AAMHXZ 00408194 f i Root.obj
 0001:000071f4       ?label1_Click@Course_EnrollPage@CS346_A2@@$$FA$AAMXP$AAVObject@System@@P$AAVEventArgs@4@@Z 004081f4 f i Root.obj
 0001:00007204       ?is_registered@Course_EnrollPage@CS346_A2@@$$FA$AAM_NP$AAVString@System@@@Z 00408204 f i Root.obj
 0001:0000728c       ?disp_comp_courses@Course_EnrollPage@CS346_A2@@$$FA$AAMXH@Z 0040828c f i Root.obj
 0001:00007400       ?Add_DE@Course_EnrollPage@CS346_A2@@$$FA$AAMXHH@Z 00408400 f i Root.obj
 0001:00007648       ?Add_OE@Course_EnrollPage@CS346_A2@@$$FA$AAMXHH@Z 00408648 f i Root.obj
 0001:00007774       ?disp_electives@Course_EnrollPage@CS346_A2@@$$FA$AAMXH@Z 00408774 f i Root.obj
 0001:00007858       ?DescButtonClicked@Course_EnrollPage@CS346_A2@@$$FA$AAMXHP$AAVDataGridView@Forms@Windows@System@@P$AAVString@6@@Z 00408858 f i Root.obj
 0001:00007904       ?check_slot_clash@Course_EnrollPage@CS346_A2@@$$FA$AAM_NP$AAVString@System@@@Z 00408904 f i Root.obj
 0001:00007964       ?RegButtonClicked@Course_EnrollPage@CS346_A2@@$$FA$AAMXHHP$AAVDataGridView@Forms@Windows@System@@P$AAVString@6@1_N@Z 00408964 f i Root.obj
 0001:00007b5c       ?dataGridView2_CellContentClick@Course_EnrollPage@CS346_A2@@$$FA$AAMXP$AAVObject@System@@P$AAVDataGridViewCellEventArgs@Forms@Windows@4@@Z 00408b5c f i Root.obj
 0001:00007cd0       ?ComboBox_SelectedIndexChanged_Elec@Course_EnrollPage@CS346_A2@@$$FA$AAMXP$AAVObject@System@@P$AAVEventArgs@4@@Z 00408cd0 f i Root.obj
 0001:00007e18       ?label2_Click@Course_EnrollPage@CS346_A2@@$$FA$AAMXP$AAVObject@System@@P$AAVEventArgs@4@@Z 00408e18 f i Root.obj
 0001:00007e28       ?display_audit_courses@Course_EnrollPage@CS346_A2@@$$FA$AAMXXZ 00408e28 f i Root.obj
 0001:00007f6c       ?dataGridView3_CellContentClick@Course_EnrollPage@CS346_A2@@$$FA$AAMXP$AAVObject@System@@P$AAVDataGridViewCellEventArgs@Forms@Windows@4@@Z 00408f6c f i Root.obj
 0001:000080e0       ?ComboBox_SelectedIndexChanged_Audit@Course_EnrollPage@CS346_A2@@$$FA$AAMXP$AAVObject@System@@P$AAVEventArgs@4@@Z 004090e0 f i Root.obj
 0001:00008330       ?<Dispose>@Course_EnrollPage@CS346_A2@@$$FM$AAMX_N@Z 00409330 f i Root.obj
 0001:00008374       ??1RegisteredCourses@CS346_A2@@$$FA$AAM@XZ 00409374 f i Root.obj
 0001:00008394       ?listView1_DrawColumnHeader@RegisteredCourses@CS346_A2@@$$FA$AAMXP$AAVObject@System@@P$AAVDrawListViewColumnHeaderEventArgs@Forms@Windows@4@@Z 00409394 f i Root.obj
 0001:000083f4       ?fill_Registered_table@RegisteredCourses@CS346_A2@@$$FQ$AAMXP$AAVUser@@@Z 004093f4 f i Root.obj
 0001:000085d4       ?get_reg_status@RegisteredCourses@CS346_A2@@$$FQ$AAMXP$AAVUser@@@Z 004095d4 f i Root.obj
 0001:00008648       ?RegisteredCourses_Load@RegisteredCourses@CS346_A2@@$$FA$AAMXP$AAVObject@System@@P$AAVEventArgs@4@@Z 00409648 f i Root.obj
 0001:000086bc       ?listView1_SelectedIndexChanged@RegisteredCourses@CS346_A2@@$$FA$AAMXP$AAVObject@System@@P$AAVEventArgs@4@@Z 004096bc f i Root.obj
 0001:000086cc       ?<Dispose>@RegisteredCourses@CS346_A2@@$$FM$AAMX_N@Z 004096cc f i Root.obj
 0001:00008710       ??1Fee_Payment_Dummy@CS346_A2@@$$FA$AAM@XZ 00409710 f i Root.obj
 0001:00008730       ?get_profile@Fee_Payment_Dummy@CS346_A2@@$$FQ$AAMXP$AAVUser@@@Z 00409730 f i Root.obj
 0001:00008848       ?get_fee_data@Fee_Payment_Dummy@CS346_A2@@$$FQ$AAMXP$AAVStudent_data@@@Z 00409848 f i Root.obj
 0001:000089d0       ?get_current_sem@Fee_Payment_Dummy@CS346_A2@@$$FQ$AAMXXZ 004099d0 f i Root.obj
 0001:00008a64       ?Fee_Payment_Dummy_Load@Fee_Payment_Dummy@CS346_A2@@$$FA$AAMXP$AAVObject@System@@P$AAVEventArgs@4@@Z 00409a64 f i Root.obj
 0001:00008ae0       ?label3_Click@Fee_Payment_Dummy@CS346_A2@@$$FA$AAMXP$AAVObject@System@@P$AAVEventArgs@4@@Z 00409ae0 f i Root.obj
 0001:00008af0       ?label4_Click@Fee_Payment_Dummy@CS346_A2@@$$FA$AAMXP$AAVObject@System@@P$AAVEventArgs@4@@Z 00409af0 f i Root.obj
 0001:00008b00       ?label5_Click@Fee_Payment_Dummy@CS346_A2@@$$FA$AAMXP$AAVObject@System@@P$AAVEventArgs@4@@Z 00409b00 f i Root.obj
 0001:00008b10       ?label6_Click@Fee_Payment_Dummy@CS346_A2@@$$FA$AAMXP$AAVObject@System@@P$AAVEventArgs@4@@Z 00409b10 f i Root.obj
 0001:00008b20       ?button1_Click@Fee_Payment_Dummy@CS346_A2@@$$FA$AAMXP$AAVObject@System@@P$AAVEventArgs@4@@Z 00409b20 f i Root.obj
 0001:00008b30       ?label2_Click@Fee_Payment_Dummy@CS346_A2@@$$FA$AAMXP$AAVObject@System@@P$AAVEventArgs@4@@Z 00409b30 f i Root.obj
 0001:00008b40       ?button2_Click@Fee_Payment_Dummy@CS346_A2@@$$FA$AAMXP$AAVObject@System@@P$AAVEventArgs@4@@Z 00409b40 f i Root.obj
 0001:00008c18       ?pictureBox1_Click@Fee_Payment_Dummy@CS346_A2@@$$FA$AAMXP$AAVObject@System@@P$AAVEventArgs@4@@Z 00409c18 f i Root.obj
 0001:00008c28       ?label13_Click@Fee_Payment_Dummy@CS346_A2@@$$FA$AAMXP$AAVObject@System@@P$AAVEventArgs@4@@Z 00409c28 f i Root.obj
 0001:00008c38       ?label2_Click_1@Fee_Payment_Dummy@CS346_A2@@$$FA$AAMXP$AAVObject@System@@P$AAVEventArgs@4@@Z 00409c38 f i Root.obj
 0001:00008c48       ?label3_Click_1@Fee_Payment_Dummy@CS346_A2@@$$FA$AAMXP$AAVObject@System@@P$AAVEventArgs@4@@Z 00409c48 f i Root.obj
 0001:00008c58       ?<Dispose>@Fee_Payment_Dummy@CS346_A2@@$$FM$AAMX_N@Z 00409c58 f i Root.obj
 0001:00008c9c       ??1TimeTableView@CS346_A2@@$$FA$AAM@XZ 00409c9c f i Root.obj
 0001:00008cbc       ?get_timetable@TimeTableView@CS346_A2@@$$FQ$AAMXP$AAVString@System@@P$AAVUser@@@Z 00409cbc f i Root.obj
 0001:00008e3c       ?TimeTableView_Load@TimeTableView@CS346_A2@@$$FA$AAMXP$AAVObject@System@@P$AAVEventArgs@4@@Z 00409e3c f i Root.obj
 0001:00008e4c       ?comboBox1_SelectedIndexChanged@TimeTableView@CS346_A2@@$$FA$AAMXP$AAVObject@System@@P$AAVEventArgs@4@@Z 00409e4c f i Root.obj
 0001:00008e78       ?listView1_SelectedIndexChanged@TimeTableView@CS346_A2@@$$FA$AAMXP$AAVObject@System@@P$AAVEventArgs@4@@Z 00409e78 f i Root.obj
 0001:00008e88       ?label4_Click@TimeTableView@CS346_A2@@$$FA$AAMXP$AAVObject@System@@P$AAVEventArgs@4@@Z 00409e88 f i Root.obj
 0001:00008e98       ?<Dispose>@TimeTableView@CS346_A2@@$$FM$AAMX_N@Z 00409e98 f i Root.obj
 0001:00008edc       ??1StudentHome@CS346_A2@@$$FA$AAM@XZ 00409edc f i Root.obj
 0001:00008efc       ?label1_Click@StudentHome@CS346_A2@@$$FA$AAMXP$AAVObject@System@@P$AAVEventArgs@4@@Z 00409efc f i Root.obj
 0001:00008f0c       ?button1_Click@StudentHome@CS346_A2@@$$FA$AAMXP$AAVObject@System@@P$AAVEventArgs@4@@Z 00409f0c f i Root.obj
 0001:00008f4c       ?label10_Click@StudentHome@CS346_A2@@$$FA$AAMXP$AAVObject@System@@P$AAVEventArgs@4@@Z 00409f4c f i Root.obj
 0001:00008f8c       ?pictureBox6_Click@StudentHome@CS346_A2@@$$FA$AAMXP$AAVObject@System@@P$AAVEventArgs@4@@Z 00409f8c f i Root.obj
 0001:00008f9c       ?pictureBox8_Click@StudentHome@CS346_A2@@$$FA$AAMXP$AAVObject@System@@P$AAVEventArgs@4@@Z 00409f9c f i Root.obj
 0001:00008fac       ?pictureBox2_Click@StudentHome@CS346_A2@@$$FA$AAMXP$AAVObject@System@@P$AAVEventArgs@4@@Z 00409fac f i Root.obj
 0001:00008fbc       ?label1_Click_1@StudentHome@CS346_A2@@$$FA$AAMXP$AAVObject@System@@P$AAVEventArgs@4@@Z 00409fbc f i Root.obj
 0001:00008fcc       ?<Dispose>@StudentHome@CS346_A2@@$$FM$AAMX_N@Z 00409fcc f i Root.obj
 0001:00009010       ??1Grade@CS346_A2@@$$FA$AAM@XZ 0040a010 f i Root.obj
 0001:00009030       ?Grade_Load@Grade@CS346_A2@@$$FA$AAMXP$AAVObject@System@@P$AAVEventArgs@4@@Z 0040a030 f i Root.obj
 0001:000090e4       ?button1_Click@Grade@CS346_A2@@$$FA$AAMXP$AAVObject@System@@P$AAVEventArgs@4@@Z 0040a0e4 f i Root.obj
 0001:00009104       ?panel1_Paint@Grade@CS346_A2@@$$FA$AAMXP$AAVObject@System@@P$AAVPaintEventArgs@Forms@Windows@4@@Z 0040a104 f i Root.obj
 0001:00009114       ?<Dispose>@Grade@CS346_A2@@$$FM$AAMX_N@Z 0040a114 f i Root.obj
 0001:00009158       ??1Signup@CS346_A2@@$$FA$AAM@XZ 0040a158 f i Root.obj
 0001:00009178       ?fetch@Signup@CS346_A2@@$$FQ$AAMXXZ 0040a178 f i Root.obj
 0001:000092a8       ?Signup_Load@Signup@CS346_A2@@$$FA$AAMXP$AAVObject@System@@P$AAVEventArgs@4@@Z 0040a2a8 f i Root.obj
 0001:000092bc       ?panel1_Paint@Signup@CS346_A2@@$$FA$AAMXP$AAVObject@System@@P$AAVPaintEventArgs@Forms@Windows@4@@Z 0040a2bc f i Root.obj
 0001:000092cc       ?button2_Click@Signup@CS346_A2@@$$FA$AAMXP$AAVObject@System@@P$AAVEventArgs@4@@Z 0040a2cc f i Root.obj
 0001:00009448       ?button1_Click@Signup@CS346_A2@@$$FA$AAMXP$AAVObject@System@@P$AAVEventArgs@4@@Z 0040a448 f i Root.obj
 0001:00009974       ?<Dispose>@Signup@CS346_A2@@$$FM$AAMX_N@Z 0040a974 f i Root.obj
 0001:000099b8       ??1AdminHome@CS346_A2@@$$FA$AAM@XZ 0040a9b8 f i Root.obj
 0001:000099d8       ?button1_Click@AdminHome@CS346_A2@@$$FA$AAMXP$AAVObject@System@@P$AAVEventArgs@4@@Z 0040a9d8 f i Root.obj
 0001:000099e8       ?panel1_Paint@AdminHome@CS346_A2@@$$FA$AAMXP$AAVObject@System@@P$AAVPaintEventArgs@Forms@Windows@4@@Z 0040a9e8 f i Root.obj
 0001:000099f8       ?button2_Click@AdminHome@CS346_A2@@$$FA$AAMXP$AAVObject@System@@P$AAVEventArgs@4@@Z 0040a9f8 f i Root.obj
 0001:00009a08       ?button5_Click@AdminHome@CS346_A2@@$$FA$AAMXP$AAVObject@System@@P$AAVEventArgs@4@@Z 0040aa08 f i Root.obj
 0001:00009a18       ?button8_Click@AdminHome@CS346_A2@@$$FA$AAMXP$AAVObject@System@@P$AAVEventArgs@4@@Z 0040aa18 f i Root.obj
 0001:00009a28       ?button7_Click@AdminHome@CS346_A2@@$$FA$AAMXP$AAVObject@System@@P$AAVEventArgs@4@@Z 0040aa28 f i Root.obj
 0001:00009a38       ?label6_Click@AdminHome@CS346_A2@@$$FA$AAMXP$AAVObject@System@@P$AAVEventArgs@4@@Z 0040aa38 f i Root.obj
 0001:00009a48       ?button6_Click@AdminHome@CS346_A2@@$$FA$AAMXP$AAVObject@System@@P$AAVEventArgs@4@@Z 0040aa48 f i Root.obj
 0001:00009a58       ?button9_Click@AdminHome@CS346_A2@@$$FA$AAMXP$AAVObject@System@@P$AAVEventArgs@4@@Z 0040aa58 f i Root.obj
 0001:00009a68       ?label8_Click@AdminHome@CS346_A2@@$$FA$AAMXP$AAVObject@System@@P$AAVEventArgs@4@@Z 0040aa68 f i Root.obj
 0001:00009a78       ?button4_Click@AdminHome@CS346_A2@@$$FA$AAMXP$AAVObject@System@@P$AAVEventArgs@4@@Z 0040aa78 f i Root.obj
 0001:00009a88       ?button3_Click@AdminHome@CS346_A2@@$$FA$AAMXP$AAVObject@System@@P$AAVEventArgs@4@@Z 0040aa88 f i Root.obj
 0001:00009a98       ?label10_Click@AdminHome@CS346_A2@@$$FA$AAMXP$AAVObject@System@@P$AAVEventArgs@4@@Z 0040aa98 f i Root.obj
 0001:00009ad8       ?pictureBox5_Click@AdminHome@CS346_A2@@$$FA$AAMXP$AAVObject@System@@P$AAVEventArgs@4@@Z 0040aad8 f i Root.obj
 0001:00009ae8       ?pictureBox8_Click@AdminHome@CS346_A2@@$$FA$AAMXP$AAVObject@System@@P$AAVEventArgs@4@@Z 0040aae8 f i Root.obj
 0001:00009af8       ?<Dispose>@AdminHome@CS346_A2@@$$FM$AAMX_N@Z 0040aaf8 f i Root.obj
 0001:00009b3c       ??1CourseForm@CS346_A2@@$$FA$AAM@XZ 0040ab3c f i Root.obj
 0001:00009b5c       ?ApproveButton_Click@CourseForm@CS346_A2@@$$FA$AAMXP$AAVObject@System@@P$AAVEventArgs@4@@Z 0040ab5c f i Root.obj
 0001:00009cc8       ?RejectButton_Click@CourseForm@CS346_A2@@$$FA$AAMXP$AAVObject@System@@P$AAVEventArgs@4@@Z 0040acc8 f i Root.obj
 0001:00009e14       ?CourseForm_Load@CourseForm@CS346_A2@@$$FA$AAMXP$AAVObject@System@@P$AAVEventArgs@4@@Z 0040ae14 f i Root.obj
 0001:00009e24       ?<Dispose>@CourseForm@CS346_A2@@$$FM$AAMX_N@Z 0040ae24 f i Root.obj
 0001:00009e68       ??1AddCourseForm@CS346_A2@@$$FA$AAM@XZ 0040ae68 f i Root.obj
 0001:00009e88       ?AddCourseToDatabase@AddCourseForm@CS346_A2@@$$FA$AAMXH@Z 0040ae88 f i Root.obj
 0001:0000a064       ?button1_Click@AddCourseForm@CS346_A2@@$$FA$AAMXP$AAVObject@System@@P$AAVEventArgs@4@@Z 0040b064 f i Root.obj
 0001:0000a0f4       ?IsValidInt@AddCourseForm@CS346_A2@@$$FA$AAM_NP$AAVString@System@@@Z 0040b0f4 f i Root.obj
 0001:0000a130       ?AddCourseForm_Load@AddCourseForm@CS346_A2@@$$FA$AAMXP$AAVObject@System@@P$AAVEventArgs@4@@Z 0040b130 f i Root.obj
 0001:0000a140       ?button2_Click@AddCourseForm@CS346_A2@@$$FA$AAMXP$AAVObject@System@@P$AAVEventArgs@4@@Z 0040b140 f i Root.obj
 0001:0000a238       ?label10_Click@AddCourseForm@CS346_A2@@$$FA$AAMXP$AAVObject@System@@P$AAVEventArgs@4@@Z 0040b238 f i Root.obj
 0001:0000a248       ?<Dispose>@AddCourseForm@CS346_A2@@$$FM$AAMX_N@Z 0040b248 f i Root.obj
 0001:0000a28c       ??1ProfileForm@CS346_A2@@$$FA$AAM@XZ 0040b28c f i Root.obj
 0001:0000a2ac       ?btnProfile_Click@ProfileForm@CS346_A2@@$$FA$AAMXP$AAVObject@System@@P$AAVEventArgs@4@@Z 0040b2ac f i Root.obj
 0001:0000a3d0       ?FetchUserData@ProfileForm@CS346_A2@@$$FA$AAMXH@Z 0040b3d0 f i Root.obj
 0001:0000a650       ?UploadImageToDatabase@ProfileForm@CS346_A2@@$$FA$AAMXP$01AEH@Z 0040b650 f i Root.obj
 0001:0000a734       ?DisplayImageFromDatabase@ProfileForm@CS346_A2@@$$FA$AAMXP$01AE@Z 0040b734 f i Root.obj
 0001:0000a78c       ?ImageToByteArray@ProfileForm@CS346_A2@@$$FA$AAMP$01AEP$AAVImage@Drawing@System@@@Z 0040b78c f i Root.obj
 0001:0000a7b4       ?label9_Click@ProfileForm@CS346_A2@@$$FA$AAMXP$AAVObject@System@@P$AAVEventArgs@4@@Z 0040b7b4 f i Root.obj
 0001:0000a7c4       ?textBox1_TextChanged@ProfileForm@CS346_A2@@$$FA$AAMXP$AAVObject@System@@P$AAVEventArgs@4@@Z 0040b7c4 f i Root.obj
 0001:0000a7d4       ?panel1_Paint@ProfileForm@CS346_A2@@$$FA$AAMXP$AAVObject@System@@P$AAVPaintEventArgs@Forms@Windows@4@@Z 0040b7d4 f i Root.obj
 0001:0000a7e4       ?dtpDOB_ValueChanged@ProfileForm@CS346_A2@@$$FA$AAMXP$AAVObject@System@@P$AAVEventArgs@4@@Z 0040b7e4 f i Root.obj
 0001:0000a7f4       ?txtContact_TextChanged@ProfileForm@CS346_A2@@$$FA$AAMXP$AAVObject@System@@P$AAVEventArgs@4@@Z 0040b7f4 f i Root.obj
 0001:0000a804       ?txtEmail_TextChanged@ProfileForm@CS346_A2@@$$FA$AAMXP$AAVObject@System@@P$AAVEventArgs@4@@Z 0040b804 f i Root.obj
 0001:0000a814       ?txtRoom_TextChanged@ProfileForm@CS346_A2@@$$FA$AAMXP$AAVObject@System@@P$AAVEventArgs@4@@Z 0040b814 f i Root.obj
 0001:0000a824       ?txtDesign_TextChanged@ProfileForm@CS346_A2@@$$FA$AAMXP$AAVObject@System@@P$AAVEventArgs@4@@Z 0040b824 f i Root.obj
 0001:0000a834       ?txtResearch_TextChanged@ProfileForm@CS346_A2@@$$FA$AAMXP$AAVObject@System@@P$AAVEventArgs@4@@Z 0040b834 f i Root.obj
 0001:0000a844       ?label3_Click@ProfileForm@CS346_A2@@$$FA$AAMXP$AAVObject@System@@P$AAVEventArgs@4@@Z 0040b844 f i Root.obj
 0001:0000a854       ?label4_Click@ProfileForm@CS346_A2@@$$FA$AAMXP$AAVObject@System@@P$AAVEventArgs@4@@Z 0040b854 f i Root.obj
 0001:0000a864       ?label7_Click@ProfileForm@CS346_A2@@$$FA$AAMXP$AAVObject@System@@P$AAVEventArgs@4@@Z 0040b864 f i Root.obj
 0001:0000a874       ?label5_Click@ProfileForm@CS346_A2@@$$FA$AAMXP$AAVObject@System@@P$AAVEventArgs@4@@Z 0040b874 f i Root.obj
 0001:0000a884       ?label13_Click@ProfileForm@CS346_A2@@$$FA$AAMXP$AAVObject@System@@P$AAVEventArgs@4@@Z 0040b884 f i Root.obj
 0001:0000a894       ?ProfileForm_Load@ProfileForm@CS346_A2@@$$FA$AAMXP$AAVObject@System@@P$AAVEventArgs@4@@Z 0040b894 f i Root.obj
 0001:0000a8a4       ?button1_Click@ProfileForm@CS346_A2@@$$FA$AAMXP$AAVObject@System@@P$AAVEventArgs@4@@Z 0040b8a4 f i Root.obj
 0001:0000a8b4       ?pictureBox1_Click@ProfileForm@CS346_A2@@$$FA$AAMXP$AAVObject@System@@P$AAVEventArgs@4@@Z 0040b8b4 f i Root.obj
 0001:0000a8c4       ?<Dispose>@ProfileForm@CS346_A2@@$$FM$AAMX_N@Z 0040b8c4 f i Root.obj
 0001:0000a908       ??1AddGradeForm@CS346_A2@@$$FA$AAM@XZ 0040b908 f i Root.obj
 0001:0000a928       ?InitializeComponent@AddGradeForm@CS346_A2@@$$FA$AAMXXZ 0040b928 f i Root.obj
 0001:0000a97c       ?AddGradeButton_Click@AddGradeForm@CS346_A2@@$$FA$AAMXP$AAVObject@System@@P$AAVEventArgs@4@@Z 0040b97c f i Root.obj
 0001:0000abd8       ?<Dispose>@AddGradeForm@CS346_A2@@$$FM$AAMX_N@Z 0040bbd8 f i Root.obj
 0001:0000ac1c       ??1FacultyHome@CS346_A2@@$$FA$AAM@XZ 0040bc1c f i Root.obj
 0001:0000ac3c       ?FacultyHome_Load@FacultyHome@CS346_A2@@$$FA$AAMXP$AAVObject@System@@P$AAVEventArgs@4@@Z 0040bc3c f i Root.obj
 0001:0000ac6c       ?button1_Click@FacultyHome@CS346_A2@@$$FA$AAMXP$AAVObject@System@@P$AAVEventArgs@4@@Z 0040bc6c f i Root.obj
 0001:0000acac       ?panel1_Paint@FacultyHome@CS346_A2@@$$FA$AAMXP$AAVObject@System@@P$AAVPaintEventArgs@Forms@Windows@4@@Z 0040bcac f i Root.obj
 0001:0000acbc       ?label2_Click@FacultyHome@CS346_A2@@$$FA$AAMXP$AAVObject@System@@P$AAVEventArgs@4@@Z 0040bcbc f i Root.obj
 0001:0000accc       ?pictureBox1_Click@FacultyHome@CS346_A2@@$$FA$AAMXP$AAVObject@System@@P$AAVEventArgs@4@@Z 0040bccc f i Root.obj
 0001:0000acdc       ?pictureBox10_Click@FacultyHome@CS346_A2@@$$FA$AAMXP$AAVObject@System@@P$AAVEventArgs@4@@Z 0040bcdc f i Root.obj
 0001:0000acec       ?label7_Click@FacultyHome@CS346_A2@@$$FA$AAMXP$AAVObject@System@@P$AAVEventArgs@4@@Z 0040bcec f i Root.obj
 0001:0000ad2c       ?lblName_Click@FacultyHome@CS346_A2@@$$FA$AAMXP$AAVObject@System@@P$AAVEventArgs@4@@Z 0040bd2c f i Root.obj
 0001:0000ad3c       ?pictureBox5_Click@FacultyHome@CS346_A2@@$$FA$AAMXP$AAVObject@System@@P$AAVEventArgs@4@@Z 0040bd3c f i Root.obj
 0001:0000ad4c       ?pictureBox2_Click@FacultyHome@CS346_A2@@$$FA$AAMXP$AAVObject@System@@P$AAVEventArgs@4@@Z 0040bd4c f i Root.obj
 0001:0000ad5c       ?pictureBox7_Click@FacultyHome@CS346_A2@@$$FA$AAMXP$AAVObject@System@@P$AAVEventArgs@4@@Z 0040bd5c f i Root.obj
 0001:0000ad6c       ?pictureBox8_Click@FacultyHome@CS346_A2@@$$FA$AAMXP$AAVObject@System@@P$AAVEventArgs@4@@Z 0040bd6c f i Root.obj
 0001:0000ad7c       ?<Dispose>@FacultyHome@CS346_A2@@$$FM$AAMX_N@Z 0040bd7c f i Root.obj
 0001:0000adc0       ??1Register@CS346_A2@@$$FA$AAM@XZ 0040bdc0 f i Root.obj
 0001:0000ade0       ?Register_Load@Register@CS346_A2@@$$FA$AAMXP$AAVObject@System@@P$AAVEventArgs@4@@Z 0040bde0 f i Root.obj
 0001:0000adf0       ?label7_Click@Register@CS346_A2@@$$FA$AAMXP$AAVObject@System@@P$AAVEventArgs@4@@Z 0040bdf0 f i Root.obj
 0001:0000ae00       ?IsPasswordValid@Register@CS346_A2@@$$FA$AAM_NP$AAVString@System@@@Z 0040be00 f i Root.obj
 0001:0000ae7c       ?label8_Click@Register@CS346_A2@@$$FA$AAMXP$AAVObject@System@@P$AAVEventArgs@4@@Z 0040be7c f i Root.obj
 0001:0000ae8c       ?label5_Click@Register@CS346_A2@@$$FA$AAMXP$AAVObject@System@@P$AAVEventArgs@4@@Z 0040be8c f i Root.obj
 0001:0000ae9c       ?pictureBox1_Click@Register@CS346_A2@@$$FA$AAMXP$AAVObject@System@@P$AAVEventArgs@4@@Z 0040be9c f i Root.obj
 0001:0000aeac       ?textBox7_TextChanged@Register@CS346_A2@@$$FA$AAMXP$AAVObject@System@@P$AAVEventArgs@4@@Z 0040beac f i Root.obj
 0001:0000aebc       ?button2_Click@Register@CS346_A2@@$$FA$AAMXP$AAVObject@System@@P$AAVEventArgs@4@@Z 0040bebc f i Root.obj
 0001:0000af4c       ?<Dispose>@Register@CS346_A2@@$$FM$AAMX_N@Z 0040bf4c f i Root.obj
 0001:0000af90       ??1MyForm@CS346_A2@@$$FA$AAM@XZ 0040bf90 f i Root.obj
 0001:0000afb0       ?label2_Click@MyForm@CS346_A2@@$$FA$AAMXP$AAVObject@System@@P$AAVEventArgs@4@@Z 0040bfb0 f i Root.obj
 0001:0000afc0       ?comboBox2_SelectedIndexChanged@MyForm@CS346_A2@@$$FA$AAMXP$AAVObject@System@@P$AAVEventArgs@4@@Z 0040bfc0 f i Root.obj
 0001:0000afd0       ?MyForm_Load@MyForm@CS346_A2@@$$FA$AAMXP$AAVObject@System@@P$AAVEventArgs@4@@Z 0040bfd0 f i Root.obj
 0001:0000afe0       ?label6_Click@MyForm@CS346_A2@@$$FA$AAMXP$AAVObject@System@@P$AAVEventArgs@4@@Z 0040bfe0 f i Root.obj
 0001:0000aff0       ?button3_Click@MyForm@CS346_A2@@$$FA$AAMXP$AAVObject@System@@P$AAVEventArgs@4@@Z 0040bff0 f i Root.obj
 0001:0000b000       ?label1_Click@MyForm@CS346_A2@@$$FA$AAMXP$AAVObject@System@@P$AAVEventArgs@4@@Z 0040c000 f i Root.obj
 0001:0000b010       ?button1_Click_1@MyForm@CS346_A2@@$$FA$AAMXP$AAVObject@System@@P$AAVEventArgs@4@@Z 0040c010 f i Root.obj
 0001:0000b060       ?<Dispose>@MyForm@CS346_A2@@$$FM$AAMX_N@Z 0040c060 f i Root.obj
 0001:0000b0a4       ??1Login_Register@CS346_A2@@$$FA$AAM@XZ 0040c0a4 f i Root.obj
 0001:0000b0c4       ?panel1_Paint@Login_Register@CS346_A2@@$$FA$AAMXP$AAVObject@System@@P$AAVPaintEventArgs@Forms@Windows@4@@Z 0040c0c4 f i Root.obj
 0001:0000b0d4       ?button1_Click@Login_Register@CS346_A2@@$$FA$AAMXP$AAVObject@System@@P$AAVEventArgs@4@@Z 0040c0d4 f i Root.obj
 0001:0000b0e4       ?button2_Click@Login_Register@CS346_A2@@$$FA$AAMXP$AAVObject@System@@P$AAVEventArgs@4@@Z 0040c0e4 f i Root.obj
 0001:0000b0f4       ?pictureBox5_Click@Login_Register@CS346_A2@@$$FA$AAMXP$AAVObject@System@@P$AAVEventArgs@4@@Z 0040c0f4 f i Root.obj
 0001:0000b104       ?pictureBox1_Click@Login_Register@CS346_A2@@$$FA$AAMXP$AAVObject@System@@P$AAVEventArgs@4@@Z 0040c104 f i Root.obj
 0001:0000b114       ?button1_Click_1@Login_Register@CS346_A2@@$$FA$AAMXP$AAVObject@System@@P$AAVEventArgs@4@@Z 0040c114 f i Root.obj
 0001:0000b124       ?pictureBox2_Click@Login_Register@CS346_A2@@$$FA$AAMXP$AAVObject@System@@P$AAVEventArgs@4@@Z 0040c124 f i Root.obj
 0001:0000b134       ?<Dispose>@Login_Register@CS346_A2@@$$FM$AAMX_N@Z 0040c134 f i Root.obj
 0001:0000b178       ??1Global_Page@CS346_A2@@$$FA$AAM@XZ 0040c178 f i Root.obj
 0001:0000b198       ?panel1_Paint@Global_Page@CS346_A2@@$$FA$AAMXP$AAVObject@System@@P$AAVPaintEventArgs@Forms@Windows@4@@Z 0040c198 f i Root.obj
 0001:0000b1a8       ?<Dispose>@Global_Page@CS346_A2@@$$FM$AAMX_N@Z 0040c1a8 f i Root.obj
 0001:0000b1ec       ??0?$char_buffer@D@details@interop@msclr@@$$FQAE@I@Z 0040c1ec f i Root.obj
 0001:0000b204       ??1?$char_buffer@D@details@interop@msclr@@$$FQAE@XZ 0040c204 f i Root.obj
 0001:0000b218       ?get@?$char_buffer@D@details@interop@msclr@@$$FQBEPADXZ 0040c218 f i Root.obj
 0001:0000b228       ?release@?$char_buffer@D@details@interop@msclr@@$$FQAEPADXZ 0040c228 f i Root.obj
 0001:0000b23c       ??$forward@V?$basic_string@DU?$char_traits@D@std@@V?$allocator@D@2@@std@@@std@@$$FYA$$QAV?$basic_string@DU?$char_traits@D@std@@V?$allocator@D@2@@0@AAV10@@Z 0040c23c f i Root.obj
 0001:0000b24c       ?_AddRef@_bstr_t@@$$FAAEXXZ 0040c24c f i Root.obj
 0001:0000b268       ?<Dispose>@marshal_context@interop@msclr@@$$FU$AAMXXZ 0040c268 f i Root.obj
 0001:0000b284       ??0?$context_node@PBDP$AAVString@System@@@interop@msclr@@$$FQ$AAM@AAPBDP$AAVString@System@@@Z 0040c284 f i Root.obj
 0001:0000b340       ??1?$context_node@PBDP$AAVString@System@@@interop@msclr@@$$FA$AAM@XZ 0040c340 f i Root.obj
 0001:0000b358       ?<Dispose>@?$context_node@PBDP$AAVString@System@@@interop@msclr@@$$FM$AAMX_N@Z 0040c358 f i Root.obj
 0001:0000b3a4       ?<Finalize>@?$context_node@PBDP$AAVString@System@@@interop@msclr@@$$FM$AAMXXZ 0040c3a4 f i Root.obj
 0001:0000b3b8       ??1?$context_node@PB_WP$AAVString@System@@@interop@msclr@@$$FA$AAM@XZ 0040c3b8 f i Root.obj
 0001:0000b3cc       ?<Dispose>@?$context_node@PB_WP$AAVString@System@@@interop@msclr@@$$FM$AAMX_N@Z 0040c3cc f i Root.obj
 0001:0000b410       ?<Finalize>@?$context_node@PB_WP$AAVString@System@@@interop@msclr@@$$FM$AAMXXZ 0040c410 f i Root.obj
 0001:0000b424       ?get_profile@Student_Profile@CS346_A2@@$$FQ$AAMXP$AAVUser@@@Z 0040c424 f i Root.obj
 0001:0000b544       ?button2_Click@Student_Profile@CS346_A2@@$$FA$AAMXP$AAVObject@System@@P$AAVEventArgs@4@@Z 0040c544 f i Root.obj
 0001:0000b5d0       ?Student_Profile_Load@Student_Profile@CS346_A2@@$$FA$AAMXP$AAVObject@System@@P$AAVEventArgs@4@@Z 0040c5d0 f i Root.obj
 0001:0000b6d0       ??0Welcome_Pic@CS346_A2@@$$FQ$AAM@XZ 0040c6d0 f i Root.obj
 0001:0000b710       ?Course_EnrollPage_Load@Course_EnrollPage@CS346_A2@@$$FA$AAMXP$AAVObject@System@@P$AAVEventArgs@4@@Z 0040c710 f i Root.obj
 0001:0000b738       ?dataGridView1_CellContentClick@Course_EnrollPage@CS346_A2@@$$FA$AAMXP$AAVObject@System@@P$AAVDataGridViewCellEventArgs@Forms@Windows@4@@Z 0040c738 f i Root.obj
 0001:0000b870       ?dataGridView2_EditingControlShowing@Course_EnrollPage@CS346_A2@@$$FA$AAMXP$AAVObject@System@@P$AAVDataGridViewEditingControlShowingEventArgs@Forms@Windows@4@@Z 0040c870 f i Root.obj
 0001:0000b8d0       ?dataGridView3_EditingControlShowing@Course_EnrollPage@CS346_A2@@$$FA$AAMXP$AAVObject@System@@P$AAVDataGridViewEditingControlShowingEventArgs@Forms@Windows@4@@Z 0040c8d0 f i Root.obj
 0001:0000b930       ?InitializeComponent@Fee_Payment_Dummy@CS346_A2@@$$FA$AAMXXZ 0040c930 f i Root.obj
 0001:0000c5d0       ?InitializeComponent@TimeTableView@CS346_A2@@$$FA$AAMXXZ 0040d5d0 f i Root.obj
 0001:0000ca44       ?InitializeComponent@Grade@CS346_A2@@$$FA$AAMXXZ 0040da44 f i Root.obj
 0001:0000cd38       ?InitializeComponent@Signup@CS346_A2@@$$FA$AAMXXZ 0040dd38 f i Root.obj
 0001:0000d3d0       ?Button_Click@CourseForm@CS346_A2@@$$FA$AAMXP$AAVObject@System@@P$AAVEventArgs@4@@Z 0040e3d0 f i Root.obj
 0001:0000dca0       ?InitializeComponent@CourseForm@CS346_A2@@$$FA$AAMXXZ 0040eca0 f i Root.obj
 0001:0000dcf0       ?InitializeComponent@AddCourseForm@CS346_A2@@$$FA$AAMXXZ 0040ecf0 f i Root.obj
 0001:0000ecac       ?btnPhoto_Click@ProfileForm@CS346_A2@@$$FA$AAMXP$AAVObject@System@@P$AAVEventArgs@4@@Z 0040fcac f i Root.obj
 0001:0000ed54       ?Button_Click@AddGradeForm@CS346_A2@@$$FA$AAMXP$AAVObject@System@@P$AAVEventArgs@4@@Z 0040fd54 f i Root.obj
 0001:0000f9d0       ?Login_Register_Load@Login_Register@CS346_A2@@$$FA$AAMXP$AAVObject@System@@P$AAVEventArgs@4@@Z 004109d0 f i Root.obj
 0001:0000fa20       ?_Chassign@?$basic_string@DU?$char_traits@D@std@@V?$allocator@D@2@@std@@$$FQAEXIID@Z 00410a20 f i Root.obj
 0001:0000fa5c       ??0_bstr_t@@$$FQAE@ABV0@@Z 00410a5c f i Root.obj
 0001:0000fa7c       __t2m@??0_bstr_t@@QAE@ABV0@@Z 00410a7c f i Root.obj
 0001:0000fa84       ?<Dispose>@?$context_node@PBDP$AAVString@System@@@interop@msclr@@$$FU$AAMXXZ 00410a84 f i Root.obj
 0001:0000faa0       ?<Dispose>@?$context_node@PB_WP$AAVString@System@@@interop@msclr@@$$FU$AAMXXZ 00410aa0 f i Root.obj
 0001:0000fabc       ?InitializeComponent@Course_EnrollPage@CS346_A2@@$$FA$AAMXXZ 00410abc f i Root.obj
 0001:00010ab8       ??0Fee_Payment_Dummy@CS346_A2@@$$FQ$AAM@P$AAVUser@@@Z 00411ab8 f i Root.obj
 0001:00010b14       ??0TimeTableView@CS346_A2@@$$FQ$AAM@P$AAVUser@@@Z 00411b14 f i Root.obj
 0001:00010b5c       ?label5_Click@StudentHome@CS346_A2@@$$FA$AAMXP$AAVObject@System@@P$AAVEventArgs@4@@Z 00411b5c f i Root.obj
 0001:00010bf0       ?label9_Click@StudentHome@CS346_A2@@$$FA$AAMXP$AAVObject@System@@P$AAVEventArgs@4@@Z 00411bf0 f i Root.obj
 0001:00010c84       ?pictureBox12_Click@StudentHome@CS346_A2@@$$FA$AAMXP$AAVObject@System@@P$AAVEventArgs@4@@Z 00411c84 f i Root.obj
 0001:00010d18       ?label6_Click@StudentHome@CS346_A2@@$$FA$AAMXP$AAVObject@System@@P$AAVEventArgs@4@@Z 00411d18 f i Root.obj
 0001:00010dac       ?label2_Click@StudentHome@CS346_A2@@$$FA$AAMXP$AAVObject@System@@P$AAVEventArgs@4@@Z 00411dac f i Root.obj
 0001:00010e40       ??0Grade@CS346_A2@@$$FQ$AAM@XZ 00411e40 f i Root.obj
 0001:00010eac       ??0Signup@CS346_A2@@$$FQ$AAM@XZ 00411eac f i Root.obj
 0001:00010f44       ?AdminHome_Load@AdminHome@CS346_A2@@$$FA$AAMXP$AAVObject@System@@P$AAVEventArgs@4@@Z 00411f44 f i Root.obj
 0001:00010fac       ?label3_Click@AdminHome@CS346_A2@@$$FA$AAMXP$AAVObject@System@@P$AAVEventArgs@4@@Z 00411fac f i Root.obj
 0001:00010ffc       ?label2_Click@AdminHome@CS346_A2@@$$FA$AAMXP$AAVObject@System@@P$AAVEventArgs@4@@Z 00411ffc f i Root.obj
 0001:0001106c       ?label5_Click@AdminHome@CS346_A2@@$$FA$AAMXP$AAVObject@System@@P$AAVEventArgs@4@@Z 0041206c f i Root.obj
 0001:000110dc       ?label7_Click@AdminHome@CS346_A2@@$$FA$AAMXP$AAVObject@System@@P$AAVEventArgs@4@@Z 004120dc f i Root.obj
 0001:0001114c       ?label4_Click@AdminHome@CS346_A2@@$$FA$AAMXP$AAVObject@System@@P$AAVEventArgs@4@@Z 0041214c f i Root.obj
 0001:000111bc       ?label3_Click_1@AdminHome@CS346_A2@@$$FA$AAMXP$AAVObject@System@@P$AAVEventArgs@4@@Z 004121bc f i Root.obj
 0001:00011240       ??0CourseForm@CS346_A2@@$$FQ$AAM@H@Z 00412240 f i Root.obj
 0001:00011408       ??0AddCourseForm@CS346_A2@@$$FQ$AAM@XZ 00412408 f i Root.obj
 0001:00011448       ??0AddCourseForm@CS346_A2@@$$FQ$AAM@H@Z 00412448 f i Root.obj
 0001:00011490       ?InitializeComponent@ProfileForm@CS346_A2@@$$FA$AAMXXZ 00412490 f i Root.obj
 0001:0001248c       ??0AddGradeForm@CS346_A2@@$$FQ$AAM@H@Z 0041348c f i Root.obj
 0001:00012654       ?label2_Click_1@FacultyHome@CS346_A2@@$$FA$AAMXP$AAVObject@System@@P$AAVEventArgs@4@@Z 00413654 f i Root.obj
 0001:000126f8       ?label4_Click@FacultyHome@CS346_A2@@$$FA$AAMXP$AAVObject@System@@P$AAVEventArgs@4@@Z 004136f8 f i Root.obj
 0001:0001279c       ?label5_Click@FacultyHome@CS346_A2@@$$FA$AAMXP$AAVObject@System@@P$AAVEventArgs@4@@Z 0041379c f i Root.obj
 0001:00012840       ?label6_Click@FacultyHome@CS346_A2@@$$FA$AAMXP$AAVObject@System@@P$AAVEventArgs@4@@Z 00413840 f i Root.obj
 0001:000128e0       ?label8_Click@FacultyHome@CS346_A2@@$$FA$AAMXP$AAVObject@System@@P$AAVEventArgs@4@@Z 004138e0 f i Root.obj
 0001:00012964       ??A?$basic_string@DU?$char_traits@D@std@@V?$allocator@D@2@@std@@$$FQAEAADI@Z 00413964 f i Root.obj
 0001:00012984       ??0Course_EnrollPage@CS346_A2@@$$FQ$AAM@P$AAVUser@@@Z 00413984 f i Root.obj
 0001:000129cc       ?button1_Click@RegisteredCourses@CS346_A2@@$$FA$AAMXP$AAVObject@System@@P$AAVEventArgs@4@@Z 004139cc f i Root.obj
 0001:00012a38       ?InitializeComponent@AdminHome@CS346_A2@@$$FA$AAMXXZ 00413a38 f i Root.obj
 0001:00013e38       ??0ProfileForm@CS346_A2@@$$FQ$AAM@H@Z 00414e38 f i Root.obj
 0001:00013e88       ?label3_Click@FacultyHome@CS346_A2@@$$FA$AAMXP$AAVObject@System@@P$AAVEventArgs@4@@Z 00414e88 f i Root.obj
 0001:00013f2c       ?InitializeComponent@RegisteredCourses@CS346_A2@@$$FA$AAMXXZ 00414f2c f i Root.obj
 0001:00014374       ??0AdminHome@CS346_A2@@$$FQ$AAM@P$AAVForm@Forms@Windows@System@@P$AAVUser@@P$AAVPanel@345@@Z 00415374 f i Root.obj
 0001:000143c8       ?InitializeComponent@FacultyHome@CS346_A2@@$$FA$AAMXXZ 004153c8 f i Root.obj
 0001:00015630       ??0?$basic_string@DU?$char_traits@D@std@@V?$allocator@D@2@@std@@$$FQAE@XZ 00416630 f i Root.obj
 0001:00015654       ?_Assign_rv@?$basic_string@DU?$char_traits@D@std@@V?$allocator@D@2@@std@@$$FQAEX$$QAV12@@Z 00416654 f i Root.obj
 0001:000156d0       ??0RegisteredCourses@CS346_A2@@$$FQ$AAM@P$AAVUser@@P$AAVPanel@Forms@Windows@System@@@Z 004166d0 f i Root.obj
 0001:00015720       ?label4_Click@StudentHome@CS346_A2@@$$FA$AAMXP$AAVObject@System@@P$AAVEventArgs@4@@Z 00416720 f i Root.obj
 0001:000157bc       ??0FacultyHome@CS346_A2@@$$FQ$AAM@P$AAVForm@Forms@Windows@System@@P$AAVUser@@P$AAVPanel@345@@Z 004167bc f i Root.obj
 0001:00015888       ??0?$basic_string@DU?$char_traits@D@std@@V?$allocator@D@2@@std@@$$FQAE@$$QAV01@@Z 00416888 f i Root.obj
 0001:000158b4       ?append@?$basic_string@DU?$char_traits@D@std@@V?$allocator@D@2@@std@@$$FQAEAAV12@ID@Z 004168b4 f i Root.obj
 0001:00015938       ?resize@?$basic_string@DU?$char_traits@D@std@@V?$allocator@D@2@@std@@$$FQAEXID@Z 00416938 f i Root.obj
 0001:00015974       ?resize@?$basic_string@DU?$char_traits@D@std@@V?$allocator@D@2@@std@@$$FQAEXI@Z 00416974 f i Root.obj
 0001:000159b0       ??$marshal_as@V?$basic_string@DU?$char_traits@D@std@@V?$allocator@D@2@@std@@P$AAVString@System@@@interop@msclr@@$$FYM?AV?$basic_string@DU?$char_traits@D@std@@V?$allocator@D@2@@std@@ABQ$AAVString@System@@@Z 004169b0 f i Root.obj
 0001:00015a50       ?ComputeMD5Hash@MiscellaneousFunctions@@$$FSMP$AAVString@System@@P$AAV23@@Z 00416a50 f i Root.obj
 0001:00015ad4       ?update_profile@Student_Profile@CS346_A2@@$$FQ$AAMXP$AAVUser@@@Z 00416ad4 f i Root.obj
 0001:00015c34       ?button1_Click@Student_Profile@CS346_A2@@$$FA$AAMXP$AAVObject@System@@P$AAVEventArgs@4@@Z 00416c34 f i Root.obj
 0001:00015c68       ?button1_Click@Register@CS346_A2@@$$FA$AAMXP$AAVObject@System@@P$AAVEventArgs@4@@Z 00416c68 f i Root.obj
 0001:00015f50       ?InitializeComponent@Student_Profile@CS346_A2@@$$FA$AAMXXZ 00416f50 f i Root.obj
 0001:000170d4       ?InitializeComponent@Register@CS346_A2@@$$FA$AAMXXZ 004180d4 f i Root.obj
 0001:00018270       ??0Student_Profile@CS346_A2@@$$FQ$AAM@P$AAVUser@@@Z 00419270 f i Root.obj
 0001:000182d0       ?StudentHome_Load@StudentHome@CS346_A2@@$$FA$AAMXP$AAVObject@System@@P$AAVEventArgs@4@@Z 004192d0 f i Root.obj
 0001:00018344       ?label3_Click@StudentHome@CS346_A2@@$$FA$AAMXP$AAVObject@System@@P$AAVEventArgs@4@@Z 00419344 f i Root.obj
 0001:000183d8       ??0Register@CS346_A2@@$$FQ$AAM@XZ 004193d8 f i Root.obj
 0001:00018418       ?button1_Click@MyForm@CS346_A2@@$$FA$AAMXP$AAVObject@System@@P$AAVEventArgs@4@@Z 00419418 f i Root.obj
 0001:00018468       ?label2_Click@Login_Register@CS346_A2@@$$FA$AAMXP$AAVObject@System@@P$AAVEventArgs@4@@Z 00419468 f i Root.obj
 0001:000184c8       ?pictureBox4_Click@Login_Register@CS346_A2@@$$FA$AAMXP$AAVObject@System@@P$AAVEventArgs@4@@Z 004194c8 f i Root.obj
 0001:00018528       ?InitializeComponent@StudentHome@CS346_A2@@$$FA$AAMXXZ 00419528 f i Root.obj
 0001:00019bd0       ??0StudentHome@CS346_A2@@$$FQ$AAM@P$AAVForm@Forms@Windows@System@@P$AAVUser@@P$AAVPanel@345@@Z 0041abd0 f i Root.obj
 0001:00019c24       ?button2_Click@MyForm@CS346_A2@@$$FA$AAMXP$AAVObject@System@@P$AAVEventArgs@4@@Z 0041ac24 f i Root.obj
 0001:00019e90       ?InitializeComponent@MyForm@CS346_A2@@$$FA$AAMXXZ 0041ae90 f i Root.obj
 0001:0001a8d8       ??0MyForm@CS346_A2@@$$FQ$AAM@P$AAVPanel@Forms@Windows@System@@P$AAVForm@345@@Z 0041b8d8 f i Root.obj
 0001:0001a928       ?pictureBox3_Click@Login_Register@CS346_A2@@$$FA$AAMXP$AAVObject@System@@P$AAVEventArgs@4@@Z 0041b928 f i Root.obj
 0001:0001a98c       ?label1_Click@Login_Register@CS346_A2@@$$FA$AAMXP$AAVObject@System@@P$AAVEventArgs@4@@Z 0041b98c f i Root.obj
 0001:0001a9f0       ?InitializeComponent@Login_Register@CS346_A2@@$$FA$AAMXXZ 0041b9f0 f i Root.obj
 0001:0001b188       ??0Login_Register@CS346_A2@@$$FQ$AAM@P$AAVPanel@Forms@Windows@System@@P$AAVForm@345@@Z 0041c188 f i Root.obj
 0001:0001b1d8       ?Login_reg_Load@Global_Page@CS346_A2@@$$FQ$AAMXXZ 0041c1d8 f i Root.obj
 0001:0001b22c       ?Global_Page_Load@Global_Page@CS346_A2@@$$FQ$AAMXP$AAVObject@System@@P$AAVEventArgs@4@@Z 0041c22c f i Root.obj
 0001:0001b240       ?InitializeComponent@Global_Page@CS346_A2@@$$FA$AAMXXZ 0041c240 f i Root.obj
 0001:0001b3d8       ??0Global_Page@CS346_A2@@$$FQ$AAM@XZ 0041c3d8 f i Root.obj
 0001:0001b420       ?main@@$$HYMHP$01AP$AAVString@System@@@Z 0041c420 f   Root.obj
 0001:0001b478       __t2m@?CheckError@_com_util@@YAXJ@Z 0041c478 f i Root.obj
 0001:0001b47e       __t2m@?AddRef@Data_t@_bstr_t@@QAEKXZ 0041c47e f i Root.obj
 0001:0001b484       ??_E_com_error@@$$FUAEPAXI@Z 0041c484 f i Root.obj
 0001:0001b4cc       ??1_com_error@@$$FUAE@XZ   0041c4cc f i Root.obj
 0001:0001b504       __t2m@??_E_com_error@@UAEPAXI@Z 0041c504 f i Root.obj
 0001:0001b504       ??_E_com_error@@UAEPAXI@Z  0041c504 f i Root.obj
 0001:0001b50a       __t2m@?assign@?$char_traits@D@std@@SAPADPADID@Z 0041c50a f i Root.obj
 0001:0001b510       __t2m@?PtrToStringChars@@YMP$CB_WP$ABVString@System@@@Z 0041c510 f i Root.obj
 0001:0001b516       __t2m@?GetAnsiStringSize@details@interop@msclr@@YMIP$AAVString@System@@@Z 0041c516 f i Root.obj
 0001:0001b51c       __t2m@?WriteAnsiString@details@interop@msclr@@YMXPADIP$AAVString@System@@@Z 0041c51c f i Root.obj
 0001:0001b522       __t2m@??0?$char_buffer@D@details@interop@msclr@@QAE@I@Z 0041c522 f i Root.obj
 0001:0001b528       __t2m@??1?$char_buffer@D@details@interop@msclr@@QAE@XZ 0041c528 f i Root.obj
 0001:0001b52e       __t2m@?get@?$char_buffer@D@details@interop@msclr@@QBEPADXZ 0041c52e f i Root.obj
 0001:0001b534       __t2m@?release@?$char_buffer@D@details@interop@msclr@@QAEPADXZ 0041c534 f i Root.obj
 0001:0001b53a       __t2m@??$forward@V?$basic_string@DU?$char_traits@D@std@@V?$allocator@D@2@@std@@@std@@YA$$QAV?$basic_string@DU?$char_traits@D@std@@V?$allocator@D@2@@0@AAV10@@Z 0041c53a f i Root.obj
 0001:0001b540       __t2m@?_AddRef@_bstr_t@@AAEXXZ 0041c540 f i Root.obj
 0001:0001b546       __t2m@?_Chassign@?$basic_string@DU?$char_traits@D@std@@V?$allocator@D@2@@std@@QAEXIID@Z 0041c546 f i Root.obj
 0001:0001b54c       __t2m@??A?$basic_string@DU?$char_traits@D@std@@V?$allocator@D@2@@std@@QAEAADI@Z 0041c54c f i Root.obj
 0001:0001b552       __t2m@??0?$basic_string@DU?$char_traits@D@std@@V?$allocator@D@2@@std@@QAE@XZ 0041c552 f i Root.obj
 0001:0001b558       __t2m@?_Assign_rv@?$basic_string@DU?$char_traits@D@std@@V?$allocator@D@2@@std@@QAEX$$QAV12@@Z 0041c558 f i Root.obj
 0001:0001b55e       __t2m@??0?$basic_string@DU?$char_traits@D@std@@V?$allocator@D@2@@std@@QAE@$$QAV01@@Z 0041c55e f i Root.obj
 0001:0001b564       __t2m@?append@?$basic_string@DU?$char_traits@D@std@@V?$allocator@D@2@@std@@QAEAAV12@ID@Z 0041c564 f i Root.obj
 0001:0001b56a       __t2m@?resize@?$basic_string@DU?$char_traits@D@std@@V?$allocator@D@2@@std@@QAEXID@Z 0041c56a f i Root.obj
 0001:0001b570       __t2m@?resize@?$basic_string@DU?$char_traits@D@std@@V?$allocator@D@2@@std@@QAEXI@Z 0041c570 f i Root.obj
 0001:0001b576       __t2m@??$marshal_as@V?$basic_string@DU?$char_traits@D@std@@V?$allocator@D@2@@std@@P$AAVString@System@@@interop@msclr@@YM?AV?$basic_string@DU?$char_traits@D@std@@V?$allocator@D@2@@std@@ABQ$AAVString@System@@@Z 0041c576 f i Root.obj
 0001:0001b57c       __t2m@??1_com_error@@UAE@XZ 0041c57c f i Root.obj
 0001:0001b590       ??0type_info@@AAE@ABV0@@Z  0041c590 f   MSVCRT:ti_inst.obj
 0001:0001b59b       ??4type_info@@AAEAAV0@ABV0@@Z 0041c59b f   MSVCRT:ti_inst.obj
 0001:0001b5a0       ??_Etype_info@@UAEPAXI@Z   0041c5a0 f i MSVCRT:ti_inst.obj
 0001:0001b5ea       ?what@exception@std@@UBEPBDXZ 0041c5ea f   MSVCRT:MSVCR120.dll
 0001:0001b5f0       __purecall                 0041c5f0 f   MSVCRT:MSVCR120.dll
 0001:0001b5f6       ??_M@YGXPAXIHP6EX0@Z@Z     0041c5f6 f   MSVCRT:ehvecdtr.obj
 0001:0001b67e       ?__ArrayUnwind@@YGXPAXIHP6EX0@Z@Z 0041c67e f   MSVCRT:ehvecdtr.obj
 0001:0001b6dc       ??3@$$FYAXPAX@Z            0041c6dc f   MSVCRT:MSVCR120.dll
 0001:0001b6dc       ??3@YAXPAX@Z               0041c6dc f   MSVCRT:MSVCR120.dll
 0001:0001b6e2       ??1type_info@@UAE@XZ       0041c6e2 f   MSVCRT:MSVCR120.dll
 0001:0001b6e8       ?terminate@@YAXXZ          0041c6e8 f   MSVCRT:MSVCR120.dll
 0001:0001b6e8       ?terminate@@$$FYAXXZ       0041c6e8 f   MSVCRT:MSVCR120.dll
 0001:0001b6f0       __SEH_prolog4              0041c6f0 f   MSVCRT:sehprolg4.obj
 0001:0001b735       __SEH_epilog4              0041c735 f   MSVCRT:sehprolg4.obj
 0001:0001b749       __except_handler4          0041c749 f   MSVCRT:chandler4gs.obj
 0001:0001b76c       @__security_check_cookie@4 0041c76c f   MSVCRT:secchk.obj
 0001:0001b77c       __except_handler4_common   0041c77c f   MSVCRT:MSVCR120.dll
 0001:0001b782       ___raise_securityfailure   0041c782 f   MSVCRT:gs_report.obj
 0001:0001b7bf       ___report_gsfailure        0041c7bf f   MSVCRT:gs_report.obj
 0001:0001b8ba       ___report_rangecheckfailure 0041c8ba f   MSVCRT:gs_report.obj
 0001:0001b8c6       ___report_securityfailure  0041c8c6 f   MSVCRT:gs_report.obj
 0001:0001b996       ___report_securityfailureEx 0041c996 f   MSVCRT:gs_report.obj
 0001:0001baac       __crt_debugger_hook        0041caac f   MSVCRT:MSVCR120.dll
 0001:0001bab2       ___crtUnhandledException   0041cab2 f   MSVCRT:MSVCR120.dll
 0001:0001bab8       ___crtTerminateProcess     0041cab8 f   MSVCRT:MSVCR120.dll
 0001:0001bac0       ?IsInDllMain@NativeDll@<CrtImplementationDetails>@@$$FSA_NXZ 0041cac0 f i MSVCMRT:mstartup.obj
 0001:0001badc       ?IsInProcessAttach@NativeDll@<CrtImplementationDetails>@@$$FSA_NXZ 0041cadc f i MSVCMRT:mstartup.obj
 0001:0001baf4       ?IsInProcessDetach@NativeDll@<CrtImplementationDetails>@@$$FSA_NXZ 0041caf4 f i MSVCMRT:mstartup.obj
 0001:0001bb0c       ?IsSafeForManagedCode@NativeDll@<CrtImplementationDetails>@@$$FSA_NXZ 0041cb0c f i MSVCMRT:mstartup.obj
 0001:0001bb50       ??0Exception@<CrtImplementationDetails>@@$$FQ$AAM@P$AAVString@System@@@Z 0041cb50 f i MSVCMRT:mstartup.obj
 0001:0001bb64       ??0Exception@<CrtImplementationDetails>@@$$FQ$AAM@P$AAVString@System@@P$AAV03@@Z 0041cb64 f i MSVCMRT:mstartup.obj
 0001:0001bb7c       ??0Exception@<CrtImplementationDetails>@@$$FI$AAM@P$AAVSerializationInfo@Serialization@Runtime@System@@VStreamingContext@345@@Z 0041cb7c f i MSVCMRT:mstartup.obj
 0001:0001bb94       ??0ModuleLoadException@<CrtImplementationDetails>@@$$FQ$AAM@P$AAVString@System@@@Z 0041cb94 f i MSVCMRT:mstartup.obj
 0001:0001bba8       ??0ModuleLoadException@<CrtImplementationDetails>@@$$FQ$AAM@P$AAVString@System@@P$AAVException@3@@Z 0041cba8 f i MSVCMRT:mstartup.obj
 0001:0001bbc0       ??0ModuleLoadException@<CrtImplementationDetails>@@$$FI$AAM@P$AAVSerializationInfo@Serialization@Runtime@System@@VStreamingContext@345@@Z 0041cbc0 f i MSVCMRT:mstartup.obj
 0001:0001bbd8       ?get@NestedException@ModuleLoadExceptionHandlerException@<CrtImplementationDetails>@@$$FQ$AAMP$AAVException@System@@XZ 0041cbd8 f i MSVCMRT:mstartup.obj
 0001:0001bbec       ?set@NestedException@ModuleLoadExceptionHandlerException@<CrtImplementationDetails>@@$$FQ$AAMXP$AAVException@System@@@Z 0041cbec f i MSVCMRT:mstartup.obj
 0001:0001bc00       ?ToString@ModuleLoadExceptionHandlerException@<CrtImplementationDetails>@@$$FU$AAMP$AAVString@System@@XZ 0041cc00 f i MSVCMRT:mstartup.obj
 0001:0001bca4       ?GetObjectData@ModuleLoadExceptionHandlerException@<CrtImplementationDetails>@@$$FU$AAMXP$AAVSerializationInfo@Serialization@Runtime@System@@VStreamingContext@456@@Z 0041cca4 f i MSVCMRT:mstartup.obj
 0001:0001bcd4       ??0ModuleLoadExceptionHandlerException@<CrtImplementationDetails>@@$$FI$AAM@P$AAVSerializationInfo@Serialization@Runtime@System@@VStreamingContext@345@@Z 0041ccd4 f i MSVCMRT:mstartup.obj
 0001:0001bd0c       ?ThrowModuleLoadException@<CrtImplementationDetails>@@$$FYMXP$AAVString@System@@@Z 0041cd0c f i MSVCMRT:mstartup.obj
 0001:0001bd20       ?ThrowModuleLoadException@<CrtImplementationDetails>@@$$FYMXP$AAVString@System@@P$AAVException@3@@Z 0041cd20 f i MSVCMRT:mstartup.obj
 0001:0001bd38       ?AddHandler@ModuleUninitializer@<CrtImplementationDetails>@@$$FQ$AAMXP$AAVEventHandler@System@@@Z 0041cd38 f i MSVCMRT:mstartup.obj
 0001:0001bd98       ?SingletonDomainUnload@ModuleUninitializer@<CrtImplementationDetails>@@$$FA$AAMXP$AAVObject@System@@P$AAVEventArgs@4@@Z 0041cd98 f i MSVCMRT:mstartup.obj
 0001:0001be3c       ?RegisterModuleUninitializer@<CrtImplementationDetails>@@$$FYMXP$AAVEventHandler@System@@@Z 0041ce3c f i MSVCMRT:mstartup.obj
 0001:0001be54       ?FromGUID@<CrtImplementationDetails>@@$$FYM?AVGuid@System@@ABU_GUID@@@Z 0041ce54 f i MSVCMRT:mstartup.obj
 0001:0001be9c       ?__get_default_appdomain@@$$FYAJPAPAUIUnknown@@@Z 0041ce9c f i MSVCMRT:mstartup.obj
 0001:0001bf20       ?__release_appdomain@@$$FYAXPAUIUnknown@@@Z 0041cf20 f i MSVCMRT:mstartup.obj
 0001:0001bf3c       ?GetDefaultDomain@<CrtImplementationDetails>@@$$FYMP$AAVAppDomain@System@@XZ 0041cf3c f i MSVCMRT:mstartup.obj
 0001:0001bf9c       ?DoCallBackInDefaultDomain@<CrtImplementationDetails>@@$$FYAXP6GJPAX@Z0@Z 0041cf9c f i MSVCMRT:mstartup.obj
 0001:0001c020       ??0OpenMPWithMultipleAppdomainsException@<CrtImplementationDetails>@@$$FQ$AAM@XZ 0041d020 f i MSVCMRT:mstartup.obj
 0001:0001c034       ??0OpenMPWithMultipleAppdomainsException@<CrtImplementationDetails>@@$$FI$AAM@P$AAVSerializationInfo@Serialization@Runtime@System@@VStreamingContext@345@@Z 0041d034 f i MSVCMRT:mstartup.obj
 0001:0001c049       ?_getFiberPtrId@@YAPAXXZ   0041d049 f   MSVCMRT:mstartup.obj
 0001:0001c049       ?_getFiberPtrId@@$$FYAPAXXZ 0041d049 f   MSVCMRT:mstartup.obj
 0001:0001c054       ?DoNothing@DefaultDomain@<CrtImplementationDetails>@@$$FCGJPAX@Z 0041d054 f i MSVCMRT:mstartup.obj
 0001:0001c074       ?HasPerProcess@DefaultDomain@<CrtImplementationDetails>@@$$FSA_NXZ 0041d074 f i MSVCMRT:mstartup.obj
 0001:0001c0c8       ?HasNative@DefaultDomain@<CrtImplementationDetails>@@$$FSA_NXZ 0041d0c8 f i MSVCMRT:mstartup.obj
 0001:0001c148       ?NeedsInitialization@DefaultDomain@<CrtImplementationDetails>@@$$FSA_NXZ 0041d148 f i MSVCMRT:mstartup.obj
 0001:0001c184       ?NeedsUninitialization@DefaultDomain@<CrtImplementationDetails>@@$$FSA_NXZ 0041d184 f i MSVCMRT:mstartup.obj
 0001:0001c198       ?Initialize@DefaultDomain@<CrtImplementationDetails>@@$$FSAXXZ 0041d198 f i MSVCMRT:mstartup.obj
 0001:0001c1b0       ?UninitializeAppDomain@LanguageSupport@<CrtImplementationDetails>@@$$FCAXXZ 0041d1b0 f i MSVCMRT:mstartup.obj
 0001:0001c1c4       ?_UninitializeDefaultDomain@LanguageSupport@<CrtImplementationDetails>@@$$FCGJPAX@Z 0041d1c4 f i MSVCMRT:mstartup.obj
 0001:0001c200       ?UninitializeDefaultDomain@LanguageSupport@<CrtImplementationDetails>@@$$FCAXXZ 0041d200 f i MSVCMRT:mstartup.obj
 0001:0001c234       ?DomainUnload@LanguageSupport@<CrtImplementationDetails>@@$$FCMXP$AAVObject@System@@P$AAVEventArgs@4@@Z 0041d234 f i MSVCMRT:mstartup.obj
 0001:0001c270       ??0?$gcroot@P$AAVString@System@@@@$$FQAE@XZ 0041d270 f i MSVCMRT:mstartup.obj
 0001:0001c294       ??1?$gcroot@P$AAVString@System@@@@$$FQAE@XZ 0041d294 f i MSVCMRT:mstartup.obj
 0001:0001c2bc       ??4?$gcroot@P$AAVString@System@@@@$$FQAMAAU0@P$AAVString@System@@@Z 0041d2bc f i MSVCMRT:mstartup.obj
 0001:0001c2e4       ??B?$gcroot@P$AAVString@System@@@@$$FQBMP$AAVString@System@@XZ 0041d2e4 f i MSVCMRT:mstartup.obj
 0001:0001c308       ??0ModuleLoadExceptionHandlerException@<CrtImplementationDetails>@@$$FQ$AAM@P$AAVString@System@@P$AAVException@3@1@Z 0041d308 f i MSVCMRT:mstartup.obj
 0001:0001c324       ?ThrowNestedModuleLoadException@<CrtImplementationDetails>@@$$FYMXP$AAVException@System@@0@Z 0041d324 f i MSVCMRT:mstartup.obj
 0001:0001c340       ??0ModuleUninitializer@<CrtImplementationDetails>@@$$FA$AAM@XZ 0041d340 f i MSVCMRT:mstartup.obj
 0001:0001c378       ?InitializeVtables@LanguageSupport@<CrtImplementationDetails>@@$$FAAEXXZ 0041d378 f i MSVCMRT:mstartup.obj
 0001:0001c3ac       ?InitializeDefaultAppDomain@LanguageSupport@<CrtImplementationDetails>@@$$FAAEXXZ 0041d3ac f i MSVCMRT:mstartup.obj
 0001:0001c3cc       ?InitializeNative@LanguageSupport@<CrtImplementationDetails>@@$$FAAEXXZ 0041d3cc f i MSVCMRT:mstartup.obj
 0001:0001c468       ?InitializePerProcess@LanguageSupport@<CrtImplementationDetails>@@$$FAAEXXZ 0041d468 f i MSVCMRT:mstartup.obj
 0001:0001c4a8       ?InitializePerAppDomain@LanguageSupport@<CrtImplementationDetails>@@$$FAAEXXZ 0041d4a8 f i MSVCMRT:mstartup.obj
 0001:0001c4e4       ?InitializeUninitializer@LanguageSupport@<CrtImplementationDetails>@@$$FAAEXXZ 0041d4e4 f i MSVCMRT:mstartup.obj
 0001:0001c510       ?_Initialize@LanguageSupport@<CrtImplementationDetails>@@$$FAAEXXZ 0041d510 f i MSVCMRT:mstartup.obj
 0001:0001c634       ?Cleanup@LanguageSupport@<CrtImplementationDetails>@@$$FAAMXP$AAVException@System@@@Z 0041d634 f i MSVCMRT:mstartup.obj
 0001:0001c6a8       ??0LanguageSupport@<CrtImplementationDetails>@@$$FQAE@XZ 0041d6a8 f i MSVCMRT:mstartup.obj
 0001:0001c6c0       ??1LanguageSupport@<CrtImplementationDetails>@@$$FQAE@XZ 0041d6c0 f i MSVCMRT:mstartup.obj
 0001:0001c6d4       ?Initialize@LanguageSupport@<CrtImplementationDetails>@@$$FQAEXXZ 0041d6d4 f i MSVCMRT:mstartup.obj
 0001:0001c790       ?.cctor@@$$FYMXXZ          0041d790 f   MSVCMRT:mstartup.obj
 0001:0001c7e0       ?.cctor@@YMXXZ             0041d7e0 f   MSVCMRT:mstartup.obj
 0001:0001c7e8       ?.cctor@ModuleUninitializer@<CrtImplementationDetails>@@$$FCMXXZ 0041d7e8 f i MSVCMRT:mstartup.obj
 0001:0001c809       __t2m@?IsInDllMain@NativeDll@<CrtImplementationDetails>@@SA_NXZ 0041d809 f i MSVCMRT:mstartup.obj
 0001:0001c80f       __t2m@?IsInProcessAttach@NativeDll@<CrtImplementationDetails>@@SA_NXZ 0041d80f f i MSVCMRT:mstartup.obj
 0001:0001c815       __t2m@?IsInProcessDetach@NativeDll@<CrtImplementationDetails>@@SA_NXZ 0041d815 f i MSVCMRT:mstartup.obj
 0001:0001c81b       __t2m@?IsSafeForManagedCode@NativeDll@<CrtImplementationDetails>@@SA_NXZ 0041d81b f i MSVCMRT:mstartup.obj
 0001:0001c821       __t2m@?ThrowModuleLoadException@<CrtImplementationDetails>@@YMXP$AAVString@System@@@Z 0041d821 f i MSVCMRT:mstartup.obj
 0001:0001c827       __t2m@?ThrowModuleLoadException@<CrtImplementationDetails>@@YMXP$AAVString@System@@P$AAVException@3@@Z 0041d827 f i MSVCMRT:mstartup.obj
 0001:0001c82d       __t2m@?RegisterModuleUninitializer@<CrtImplementationDetails>@@YMXP$AAVEventHandler@System@@@Z 0041d82d f i MSVCMRT:mstartup.obj
 0001:0001c833       __t2m@?FromGUID@<CrtImplementationDetails>@@YM?AVGuid@System@@ABU_GUID@@@Z 0041d833 f i MSVCMRT:mstartup.obj
 0001:0001c839       __t2m@?__get_default_appdomain@@YAJPAPAUIUnknown@@@Z 0041d839 f i MSVCMRT:mstartup.obj
 0001:0001c83f       __t2m@?__release_appdomain@@YAXPAUIUnknown@@@Z 0041d83f f i MSVCMRT:mstartup.obj
 0001:0001c845       __t2m@?GetDefaultDomain@<CrtImplementationDetails>@@YMP$AAVAppDomain@System@@XZ 0041d845 f i MSVCMRT:mstartup.obj
 0001:0001c84b       __t2m@?DoCallBackInDefaultDomain@<CrtImplementationDetails>@@YAXP6GJPAX@Z0@Z 0041d84b f i MSVCMRT:mstartup.obj
 0001:0001c851       ?DoNothing@DefaultDomain@<CrtImplementationDetails>@@CGJPAX@Z 0041d851 f i MSVCMRT:mstartup.obj
 0001:0001c851       __t2m@?DoNothing@DefaultDomain@<CrtImplementationDetails>@@CGJPAX@Z 0041d851 f i MSVCMRT:mstartup.obj
 0001:0001c857       __t2m@?HasPerProcess@DefaultDomain@<CrtImplementationDetails>@@SA_NXZ 0041d857 f i MSVCMRT:mstartup.obj
 0001:0001c85d       __t2m@?HasNative@DefaultDomain@<CrtImplementationDetails>@@SA_NXZ 0041d85d f i MSVCMRT:mstartup.obj
 0001:0001c863       __t2m@?NeedsInitialization@DefaultDomain@<CrtImplementationDetails>@@SA_NXZ 0041d863 f i MSVCMRT:mstartup.obj
 0001:0001c869       __t2m@?NeedsUninitialization@DefaultDomain@<CrtImplementationDetails>@@SA_NXZ 0041d869 f i MSVCMRT:mstartup.obj
 0001:0001c86f       __t2m@?Initialize@DefaultDomain@<CrtImplementationDetails>@@SAXXZ 0041d86f f i MSVCMRT:mstartup.obj
 0001:0001c875       __t2m@?UninitializeAppDomain@LanguageSupport@<CrtImplementationDetails>@@CAXXZ 0041d875 f i MSVCMRT:mstartup.obj
 0001:0001c87b       ?_UninitializeDefaultDomain@LanguageSupport@<CrtImplementationDetails>@@CGJPAX@Z 0041d87b f i MSVCMRT:mstartup.obj
 0001:0001c87b       __t2m@?_UninitializeDefaultDomain@LanguageSupport@<CrtImplementationDetails>@@CGJPAX@Z 0041d87b f i MSVCMRT:mstartup.obj
 0001:0001c881       __t2m@?UninitializeDefaultDomain@LanguageSupport@<CrtImplementationDetails>@@CAXXZ 0041d881 f i MSVCMRT:mstartup.obj
 0001:0001c887       __t2m@?DomainUnload@LanguageSupport@<CrtImplementationDetails>@@CMXP$AAVObject@System@@P$AAVEventArgs@4@@Z 0041d887 f i MSVCMRT:mstartup.obj
 0001:0001c88d       __t2m@??0?$gcroot@P$AAVString@System@@@@QAE@XZ 0041d88d f i MSVCMRT:mstartup.obj
 0001:0001c893       __t2m@??1?$gcroot@P$AAVString@System@@@@QAE@XZ 0041d893 f i MSVCMRT:mstartup.obj
 0001:0001c899       __t2m@??4?$gcroot@P$AAVString@System@@@@QAMAAU0@P$AAVString@System@@@Z 0041d899 f i MSVCMRT:mstartup.obj
 0001:0001c89f       __t2m@??B?$gcroot@P$AAVString@System@@@@QBMP$AAVString@System@@XZ 0041d89f f i MSVCMRT:mstartup.obj
 0001:0001c8a5       __t2m@?ThrowNestedModuleLoadException@<CrtImplementationDetails>@@YMXP$AAVException@System@@0@Z 0041d8a5 f i MSVCMRT:mstartup.obj
 0001:0001c8ab       __t2m@?InitializeVtables@LanguageSupport@<CrtImplementationDetails>@@AAEXXZ 0041d8ab f i MSVCMRT:mstartup.obj
 0001:0001c8b1       __t2m@?InitializeDefaultAppDomain@LanguageSupport@<CrtImplementationDetails>@@AAEXXZ 0041d8b1 f i MSVCMRT:mstartup.obj
 0001:0001c8b7       __t2m@?InitializeNative@LanguageSupport@<CrtImplementationDetails>@@AAEXXZ 0041d8b7 f i MSVCMRT:mstartup.obj
 0001:0001c8bd       __t2m@?InitializePerProcess@LanguageSupport@<CrtImplementationDetails>@@AAEXXZ 0041d8bd f i MSVCMRT:mstartup.obj
 0001:0001c8c3       __t2m@?InitializePerAppDomain@LanguageSupport@<CrtImplementationDetails>@@AAEXXZ 0041d8c3 f i MSVCMRT:mstartup.obj
 0001:0001c8c9       __t2m@?InitializeUninitializer@LanguageSupport@<CrtImplementationDetails>@@AAEXXZ 0041d8c9 f i MSVCMRT:mstartup.obj
 0001:0001c8cf       __t2m@?_Initialize@LanguageSupport@<CrtImplementationDetails>@@AAEXXZ 0041d8cf f i MSVCMRT:mstartup.obj
 0001:0001c8d5       __t2m@?Cleanup@LanguageSupport@<CrtImplementationDetails>@@AAMXP$AAVException@System@@@Z 0041d8d5 f i MSVCMRT:mstartup.obj
 0001:0001c8db       __t2m@??0LanguageSupport@<CrtImplementationDetails>@@QAE@XZ 0041d8db f i MSVCMRT:mstartup.obj
 0001:0001c8e1       __t2m@??1LanguageSupport@<CrtImplementationDetails>@@QAE@XZ 0041d8e1 f i MSVCMRT:mstartup.obj
 0001:0001c8e7       __t2m@?Initialize@LanguageSupport@<CrtImplementationDetails>@@QAEXXZ 0041d8e7 f i MSVCMRT:mstartup.obj
 0001:0001c8f0       ?___CxxCallUnwindDtor@@$$J0YMXP6MXPAX@Z0@Z 0041d8f0 f   MSVCMRT:managdeh.obj
 0001:0001c934       ____CxxCallUnwindDtor      0041d934 f   MSVCMRT:managdeh.obj
 0001:0001c93c       ?___CxxCallUnwindDelDtor@@$$J0YMXP6MXPAX@Z0@Z 0041d93c f   MSVCMRT:managdeh.obj
 0001:0001c980       ____CxxCallUnwindDelDtor   0041d980 f   MSVCMRT:managdeh.obj
 0001:0001c988       ?___CxxCallUnwindVecDtor@@$$J0YMXP6MXPAXIHP6MX0@Z@Z0IH1@Z 0041d988 f   MSVCMRT:managdeh.obj
 0001:0001c9d0       ____CxxCallUnwindVecDtor   0041d9d0 f   MSVCMRT:managdeh.obj
 0001:0001c9d8       ?ArrayUnwindFilter@?A0x57cabd3d@@$$FYAHPAU_EXCEPTION_POINTERS@@@Z 0041d9d8 f   MSVCMRT:mehvecdtr.obj
 0001:0001c9f8       ?__ArrayUnwind@@$$FYMXPAXIHP6MX0@Z@Z 0041d9f8 f   MSVCMRT:mehvecdtr.obj
 0001:0001ca4c       ?__ArrayUnwind@@YMXPAXIHP6MX0@Z@Z 0041da4c f   MSVCMRT:mehvecdtr.obj
 0001:0001ca54       ??_M@$$FYMXPAXIHP6MX0@Z@Z  0041da54 f   MSVCMRT:mehvecdtr.obj
 0001:0001cab0       ??_M@YMXPAXIHP6MX0@Z@Z     0041dab0 f   MSVCMRT:mehvecdtr.obj
 0001:0001cab6       ?ArrayUnwindFilter@?A0x57cabd3d@@YAHPAU_EXCEPTION_POINTERS@@@Z 0041dab6 f   MSVCMRT:mehvecdtr.obj
 0001:0001cabc       ?_handle@AtExitLock@<CrtImplementationDetails>@@$$FCMP$AAVGCHandle@InteropServices@Runtime@System@@XZ 0041dabc f i MSVCMRT:msilexit.obj
 0001:0001caec       ?_lock_Set@AtExitLock@<CrtImplementationDetails>@@$$FCMXP$AAVObject@System@@@Z 0041daec f i MSVCMRT:msilexit.obj
 0001:0001cb3c       ?_lock_Get@AtExitLock@<CrtImplementationDetails>@@$$FCMP$AAVObject@System@@XZ 0041db3c f i MSVCMRT:msilexit.obj
 0001:0001cb60       ?_lock_Destruct@AtExitLock@<CrtImplementationDetails>@@$$FCAXXZ 0041db60 f i MSVCMRT:msilexit.obj
 0001:0001cb88       ?IsInitialized@AtExitLock@<CrtImplementationDetails>@@$$FSA_NXZ 0041db88 f i MSVCMRT:msilexit.obj
 0001:0001cba4       ?RemoveRef@AtExitLock@<CrtImplementationDetails>@@$$FSAXXZ 0041dba4 f i MSVCMRT:msilexit.obj
 0001:0001cbcc       ?Enter@AtExitLock@<CrtImplementationDetails>@@$$FSAXXZ 0041dbcc f i MSVCMRT:msilexit.obj
 0001:0001cbe4       ?Exit@AtExitLock@<CrtImplementationDetails>@@$$FSAXXZ 0041dbe4 f i MSVCMRT:msilexit.obj
 0001:0001cbfc       ?__global_lock@?A0xe62d03cb@@$$FYA_NXZ 0041dbfc f   MSVCMRT:msilexit.obj
 0001:0001cc1c       ?__global_unlock@?A0xe62d03cb@@$$FYA_NXZ 0041dc1c f   MSVCMRT:msilexit.obj
 0001:0001cc3c       ?__dealloc_global_lock@?A0xe62d03cb@@$$FYAXXZ 0041dc3c f   MSVCMRT:msilexit.obj
 0001:0001cc50       ?_atexit_helper@@$$J0YMHP6MXXZPAIPAPAP6MXXZ2@Z 0041dc50 f   MSVCMRT:msilexit.obj
 0001:0001cdcc       __atexit_helper            0041ddcc f   MSVCMRT:msilexit.obj
 0001:0001cdd4       ?_exit_callback@@$$J0YMXXZ 0041ddd4 f   MSVCMRT:msilexit.obj
 0001:0001ce77       __exit_callback            0041de77 f   MSVCMRT:msilexit.obj
 0001:0001ce80       ?_atexit_m@@$$J0YMHP6MXXZ@Z 0041de80 f   MSVCMRT:msilexit.obj
 0001:0001cea7       __atexit_m                 0041dea7 f   MSVCMRT:msilexit.obj
 0001:0001ceb0       ?_app_exit_callback@@$$J0YMXXZ 0041deb0 f   MSVCMRT:msilexit.obj
 0001:0001cf88       __app_exit_callback        0041df88 f   MSVCMRT:msilexit.obj
 0001:0001cf90       ?_atexit_m_appdomain@@$$J0YMHP6MXXZ@Z 0041df90 f   MSVCMRT:msilexit.obj
 0001:0001cfb7       __atexit_m_appdomain       0041dfb7 f   MSVCMRT:msilexit.obj
 0001:0001cfc0       ?_lock_Construct@AtExitLock@<CrtImplementationDetails>@@$$FCMXP$AAVObject@System@@@Z 0041dfc0 f i MSVCMRT:msilexit.obj
 0001:0001cfdc       ?AddRef@AtExitLock@<CrtImplementationDetails>@@$$FSAXXZ 0041dfdc f i MSVCMRT:msilexit.obj
 0001:0001d00c       ?__alloc_global_lock@?A0xe62d03cb@@$$FYA_NXZ 0041e00c f   MSVCMRT:msilexit.obj
 0001:0001d024       ?_initatexit_m@@$$J0YMHXZ  0041e024 f   MSVCMRT:msilexit.obj
 0001:0001d069       __initatexit_m             0041e069 f   MSVCMRT:msilexit.obj
 0001:0001d070       ?_onexit_m@@$$J0YMP6MHXZP6MHXZ@Z 0041e070 f   MSVCMRT:msilexit.obj
 0001:0001d08a       __onexit_m                 0041e08a f   MSVCMRT:msilexit.obj
 0001:0001d090       ?_initatexit_app_domain@@$$J0YMHXZ 0041e090 f   MSVCMRT:msilexit.obj
 0001:0001d0d3       __initatexit_app_domain    0041e0d3 f   MSVCMRT:msilexit.obj
 0001:0001d0dc       ?_onexit_m_appdomain@@$$J0YMP6MHXZP6MHXZ@Z 0041e0dc f   MSVCMRT:msilexit.obj
 0001:0001d0f6       __onexit_m_appdomain       0041e0f6 f   MSVCMRT:msilexit.obj
 0001:0001d0fc       __t2m@?_handle@AtExitLock@<CrtImplementationDetails>@@CMP$AAVGCHandle@InteropServices@Runtime@System@@XZ 0041e0fc f i MSVCMRT:msilexit.obj
 0001:0001d102       __t2m@?_lock_Set@AtExitLock@<CrtImplementationDetails>@@CMXP$AAVObject@System@@@Z 0041e102 f i MSVCMRT:msilexit.obj
 0001:0001d108       __t2m@?_lock_Get@AtExitLock@<CrtImplementationDetails>@@CMP$AAVObject@System@@XZ 0041e108 f i MSVCMRT:msilexit.obj
 0001:0001d10e       __t2m@?_lock_Destruct@AtExitLock@<CrtImplementationDetails>@@CAXXZ 0041e10e f i MSVCMRT:msilexit.obj
 0001:0001d114       __t2m@?IsInitialized@AtExitLock@<CrtImplementationDetails>@@SA_NXZ 0041e114 f i MSVCMRT:msilexit.obj
 0001:0001d11a       __t2m@?RemoveRef@AtExitLock@<CrtImplementationDetails>@@SAXXZ 0041e11a f i MSVCMRT:msilexit.obj
 0001:0001d120       __t2m@?Enter@AtExitLock@<CrtImplementationDetails>@@SAXXZ 0041e120 f i MSVCMRT:msilexit.obj
 0001:0001d126       __t2m@?Exit@AtExitLock@<CrtImplementationDetails>@@SAXXZ 0041e126 f i MSVCMRT:msilexit.obj
 0001:0001d12c       ?__global_lock@?A0xe62d03cb@@YA_NXZ 0041e12c f   MSVCMRT:msilexit.obj
 0001:0001d132       ?__global_unlock@?A0xe62d03cb@@YA_NXZ 0041e132 f   MSVCMRT:msilexit.obj
 0001:0001d138       ?__dealloc_global_lock@?A0xe62d03cb@@YAXXZ 0041e138 f   MSVCMRT:msilexit.obj
 0001:0001d13e       __t2m@?_lock_Construct@AtExitLock@<CrtImplementationDetails>@@CMXP$AAVObject@System@@@Z 0041e13e f i MSVCMRT:msilexit.obj
 0001:0001d144       __t2m@?AddRef@AtExitLock@<CrtImplementationDetails>@@SAXXZ 0041e144 f i MSVCMRT:msilexit.obj
 0001:0001d14a       ?__alloc_global_lock@?A0xe62d03cb@@YA_NXZ 0041e14a f   MSVCMRT:msilexit.obj
 0001:0001d150       ?mainCRTStartupStrArray@@$$FYMHP$01AP$AAVString@System@@@Z 0041e150 f   MSVCMRT:ManagedMain.obj
 0001:0001d1c8       ?mainCRTStartupStrArray@@YMHP$01AP$AAVString@System@@@Z 0041e1c8 f   MSVCMRT:ManagedMain.obj
 0001:0001d1d0       ?__set_managed_app_type@?A0xf9a62e5d@@$$FYMXXZ 0041e1d0 f   MSVCMRT:ManagedMain.obj
 0001:0001d228       ?_common_init@?A0xf9a62e5d@@$$FYAXXZ 0041e228 f   MSVCMRT:ManagedMain.obj
 0001:0001d25f       ?_mixed_pre_c_init@?A0xf9a62e5d@@YAHXZ 0041e25f f   MSVCMRT:ManagedMain.obj
 0001:0001d291       ?__set_managed_app_type@?A0xf9a62e5d@@YMXXZ 0041e291 f   MSVCMRT:ManagedMain.obj
 0001:0001d297       ?_common_init@?A0xf9a62e5d@@YAXXZ 0041e297 f   MSVCMRT:ManagedMain.obj
 0001:0001d2a0       ?_initterm_e@@$$FYMHPAP6AHXZ0@Z 0041e2a0 f   MSVCMRT:puremsilcode.obj
 0001:0001d2cd       ?_initterm_e@@YMHPAP6AHXZ0@Z 0041e2cd f   MSVCMRT:puremsilcode.obj
 0001:0001d2d4       ?_initterm@@$$FYMXPAP6AXXZ0@Z 0041e2d4 f   MSVCMRT:puremsilcode.obj
 0001:0001d2fa       ?_initterm@@YMXPAP6AXXZ0@Z 0041e2fa f   MSVCMRT:puremsilcode.obj
 0001:0001d300       ?Handle@ThisModule@<CrtImplementationDetails>@@$$FCM?AVModuleHandle@System@@XZ 0041e300 f i MSVCMRT:puremsilcode.obj
 0001:0001d324       ??$ResolveMethod@$$A6MPBXXZ@ThisModule@<CrtImplementationDetails>@@$$FSMP6MPBXXZP6MPBXXZ@Z 0041e324 f i MSVCMRT:puremsilcode.obj
 0001:0001d350       ?_initterm_m@@$$FYMXPBQ6MPBXXZ0@Z 0041e350 f   MSVCMRT:puremsilcode.obj
 0001:0001d37c       ?_initterm_m@@YMXPBQ6MPBXXZ0@Z 0041e37c f   MSVCMRT:puremsilcode.obj
 0001:0001d382       __t2m@?Handle@ThisModule@<CrtImplementationDetails>@@CM?AVModuleHandle@System@@XZ 0041e382 f i MSVCMRT:puremsilcode.obj
 0001:0001d388       __t2m@??$ResolveMethod@$$A6MPBXXZ@ThisModule@<CrtImplementationDetails>@@SMP6MPBXXZP6MPBXXZ@Z 0041e388 f i MSVCMRT:puremsilcode.obj
 0001:0001d390       ?_wsetargv@@$$J0YAHXZ      0041e390 f   MSVCMRT:wdllargv.obj
 0001:0001d39e       __wsetargv                 0041e39e f   MSVCMRT:wdllargv.obj
 0001:0001d3a4       _IsDebuggerPresent@0       0041e3a4 f   kernel32:KERNEL32.dll
 0001:0001d3aa       _IsProcessorFeaturePresent@4 0041e3aa f   kernel32:KERNEL32.dll
 0001:0001d3b0       _EncodePointer@4           0041e3b0 f   kernel32:KERNEL32.dll
 0001:0001d3b6       __matherr                  0041e3b6 f   MSVCRT:merr.obj
 0001:0001d3b9       ___atonexitinit            0041e3b9 f   MSVCRT:atonexit.obj
 0001:0001d3f5       __onexit                   0041e3f5 f   MSVCRT:atonexit.obj
 0001:0001d49e       _atexit                    0041e49e f   MSVCRT:atonexit.obj
 0001:0001d4b4       ___setusermatherr          0041e4b4 f   MSVCRT:MSVCR120.dll
 0001:0001d4ba       __RTC_Initialize           0041e4ba f   MSVCRT:initsect.obj
 0001:0001d4da       __RTC_Terminate            0041e4da f   MSVCRT:initsect.obj
 0001:0001d4fa       __lock                     0041e4fa f   MSVCRT:MSVCR120.dll
 0001:0001d500       __unlock                   0041e500 f   MSVCRT:MSVCR120.dll
 0001:0001d506       __calloc_crt               0041e506 f   MSVCRT:MSVCR120.dll
 0001:0001d50c       ___dllonexit               0041e50c f   MSVCRT:MSVCR120.dll
 0001:0001d512       _DecodePointer@4           0041e512 f   kernel32:KERNEL32.dll
 0001:0001d518       _PlaySoundW@12             0041e518 f   Winmm:WINMM.dll
 0001:0001d518       ?PlaySoundW@@$$J212YGHPB_WPAUHINSTANCE__@@K@Z 0041e518 f   Winmm:WINMM.dll
 0001:0001d51e       ?_Xlength_error@std@@$$FYAXPBD@Z 0041e51e f   msvcprt:MSVCP120.dll
 0001:0001d51e       ?_Xlength_error@std@@YAXPBD@Z 0041e51e f   msvcprt:MSVCP120.dll
 0001:0001d524       ?_Xout_of_range@std@@YAXPBD@Z 0041e524 f   msvcprt:MSVCP120.dll
 0001:0001d524       ?_Xout_of_range@std@@$$FYAXPBD@Z 0041e524 f   msvcprt:MSVCP120.dll
 0001:0001d52a       ?_Xbad_alloc@std@@$$FYAXXZ 0041e52a f   msvcprt:MSVCP120.dll
 0001:0001d52a       ?_Xbad_alloc@std@@YAXXZ    0041e52a f   msvcprt:MSVCP120.dll
 0001:0001d530       ?_Syserror_map@std@@$$FYAPBDH@Z 0041e530 f   msvcprt:MSVCP120.dll
 0001:0001d530       ?_Syserror_map@std@@YAPBDH@Z 0041e530 f   msvcprt:MSVCP120.dll
 0001:0001d536       ?_Winerror_map@std@@$$FYAPBDH@Z 0041e536 f   msvcprt:MSVCP120.dll
 0001:0001d536       ?_Winerror_map@std@@YAPBDH@Z 0041e536 f   msvcprt:MSVCP120.dll
 0001:0001d53c       ??0id@locale@std@@$$FQAE@I@Z 0041e53c f   msvcprt:MSVCP120.dll
 0001:0001d53c       ??0id@locale@std@@QAE@I@Z  0041e53c f   msvcprt:MSVCP120.dll
 0001:0001d542       ??_U@$$FYAPAXI@Z           0041e542 f   msvcprt:newaop_s.obj
 0001:0001d542       ??_U@YAPAXI@Z              0041e542 f   msvcprt:newaop_s.obj
 0001:0001d54c       ?_hypot@@$$J0YANNN@Z       0041e54c f   MSVCRT:MSVCR120.dll
 0001:0001d54c       __hypot                    0041e54c f   MSVCRT:MSVCR120.dll
 0001:0001d552       ?__ExceptionPtrCopy@@YAXPAXPBX@Z 0041e552 f   MSVCRT:MSVCR120.dll
 0001:0001d552       ?__ExceptionPtrCopy@@$$FYAXPAXPBX@Z 0041e552 f   MSVCRT:MSVCR120.dll
 0001:0001d558       _memmove                   0041e558 f   MSVCRT:MSVCR120.dll
 0001:0001d558       ?memmove@@$$J0YAPAXPAXPBXI@Z 0041e558 f   MSVCRT:MSVCR120.dll
 0001:0001d55e       ??1exception@std@@$$FUAE@XZ 0041e55e f   MSVCRT:MSVCR120.dll
 0001:0001d55e       ??1exception@std@@UAE@XZ   0041e55e f   MSVCRT:MSVCR120.dll
 0001:0001d564       ??0exception@std@@QAE@ABV01@@Z 0041e564 f   MSVCRT:MSVCR120.dll
 0001:0001d564       ??0exception@std@@$$FQAE@ABV01@@Z 0041e564 f   MSVCRT:MSVCR120.dll
 0001:0001d56a       ??2@$$FYAPAXI@Z            0041e56a f   MSVCRT:MSVCR120.dll
 0001:0001d56a       ??2@YAPAXI@Z               0041e56a f   MSVCRT:MSVCR120.dll
 0001:0001d570       ___CxxQueryExceptionSize   0041e570 f   MSVCRT:MSVCR120.dll
 0001:0001d570       ?__CxxQueryExceptionSize@@$$J0YAHXZ 0041e570 f   MSVCRT:MSVCR120.dll
 0001:0001d576       ___CxxExceptionFilter      0041e576 f   MSVCRT:MSVCR120.dll
 0001:0001d576       ?__CxxExceptionFilter@@$$J0YAHPAX0H0@Z 0041e576 f   MSVCRT:MSVCR120.dll
 0001:0001d57c       ?__CxxRegisterExceptionObject@@$$J0YAHPAX0@Z 0041e57c f   MSVCRT:MSVCR120.dll
 0001:0001d57c       ___CxxRegisterExceptionObject 0041e57c f   MSVCRT:MSVCR120.dll
 0001:0001d582       ?_CxxThrowException@@$$J18YGXPAXPBU_s__ThrowInfo@@@Z 0041e582 f   MSVCRT:MSVCR120.dll
 0001:0001d582       __CxxThrowException@8      0041e582 f   MSVCRT:MSVCR120.dll
 0001:0001d588       ?__CxxDetectRethrow@@$$J0YAHPAX@Z 0041e588 f   MSVCRT:MSVCR120.dll
 0001:0001d588       ___CxxDetectRethrow        0041e588 f   MSVCRT:MSVCR120.dll
 0001:0001d58e       ?__CxxUnregisterExceptionObject@@$$J0YAXPAXH@Z 0041e58e f   MSVCRT:MSVCR120.dll
 0001:0001d58e       ___CxxUnregisterExceptionObject 0041e58e f   MSVCRT:MSVCR120.dll
 0001:0001d594       ??_V@YAXPAX@Z              0041e594 f   MSVCRT:MSVCR120.dll
 0001:0001d594       ??_V@$$FYAXPAX@Z           0041e594 f   MSVCRT:MSVCR120.dll
 0001:0001d59a       ?_cexit@@$$J0YAXXZ         0041e59a f   MSVCRT:MSVCR120.dll
 0001:0001d59a       __cexit                    0041e59a f   MSVCRT:MSVCR120.dll
 0001:0001d5a0       ___security_init_cookie    0041e5a0 f   MSVCRT:gs_support.obj
 0001:0001d5a0       ?__security_init_cookie@@$$J0YAXXZ 0041e5a0 f   MSVCRT:gs_support.obj
 0001:0001d63c       __amsg_exit                0041e63c f   MSVCRT:MSVCR120.dll
 0001:0001d63c       ?_amsg_exit@@$$J0YAXH@Z    0041e63c f   MSVCRT:MSVCR120.dll
 0001:0001d642       ?__FrameUnwindFilter@@$$J0YAHPAU_EXCEPTION_POINTERS@@@Z 0041e642 f   MSVCRT:MSVCR120.dll
 0001:0001d642       ___FrameUnwindFilter       0041e642 f   MSVCRT:MSVCR120.dll
 0001:0001d648       ?_query_new_mode@@YAHXZ    0041e648 f   MSVCRT:MSVCR120.dll
 0001:0001d648       ?_query_new_mode@@$$FYAHXZ 0041e648 f   MSVCRT:MSVCR120.dll
 0001:0001d64e       ___wgetmainargs            0041e64e f   MSVCRT:MSVCR120.dll
 0001:0001d64e       ?__wgetmainargs@@$$J0YAHPAHPAPAPA_W1HPAU_startupinfo@@@Z 0041e64e f   MSVCRT:MSVCR120.dll
 0001:0001d654       ?_XcptFilter@@$$J0YAHKPAU_EXCEPTION_POINTERS@@@Z 0041e654 f   MSVCRT:MSVCR120.dll
 0001:0001d654       __XcptFilter               0041e654 f   MSVCRT:MSVCR120.dll
 0001:0001d65a       ___set_app_type            0041e65a f   MSVCRT:MSVCR120.dll
 0001:0001d65a       ?__set_app_type@@$$J0YAXH@Z 0041e65a f   MSVCRT:MSVCR120.dll
 0001:0001d660       ?__p__fmode@@$$J0YAPAHXZ   0041e660 f   MSVCRT:MSVCR120.dll
 0001:0001d660       ___p__fmode                0041e660 f   MSVCRT:MSVCR120.dll
 0001:0001d666       ?__p__commode@@$$J0YAPAHXZ 0041e666 f   MSVCRT:MSVCR120.dll
 0001:0001d666       ___p__commode              0041e666 f   MSVCRT:MSVCR120.dll
 0001:0001d66c       __configthreadlocale       0041e66c f   MSVCRT:MSVCR120.dll
 0001:0001d66c       ?_configthreadlocale@@$$J0YAHH@Z 0041e66c f   MSVCRT:MSVCR120.dll
 0001:0001d680       ?_com_dispatch_method@@YAJPAUIDispatch@@JGGPAXPB_WZZ 0041e680 f   comsuppw:comsupp.obj
 0001:0001d6c0       ?_com_dispatch_propget@@YGJPAUIDispatch@@JGPAX@Z 0041e6c0 f   comsuppw:comsupp.obj
 0001:0001d6e0       ?_com_dispatch_propput@@YAJPAUIDispatch@@JGZZ 0041e6e0 f   comsuppw:comsupp.obj
 0001:0001d740       ?_com_issue_error@@$$FYGXJ@Z 0041e740 f   comsuppw:comsupp.obj
 0001:0001d740       ?_com_issue_error@@YGXJ@Z  0041e740 f   comsuppw:comsupp.obj
 0001:0001d760       ?_com_issue_errorex@@YGXJPAUIUnknown@@ABU_GUID@@@Z 0041e760 f   comsuppw:comsupp.obj
 0001:0001d7e0       ?_set_com_error_handler@@YGXP6GXJPAUIErrorInfo@@@Z@Z 0041e7e0 f   comsuppw:comsupp.obj
 0001:0001d7f0       ??0_com_error@@QAE@ABV0@@Z 0041e7f0 f i comsuppw:comraise.obj
 0001:0001d830       ??0_com_error@@QAE@JPAUIErrorInfo@@_N@Z 0041e830 f i comsuppw:comraise.obj
 0001:0001d870       ??1_com_error@@UAE@XZ      0041e870 f i comsuppw:comraise.obj
 0001:0001d8a0       ??_G_com_error@@UAEPAXI@Z  0041e8a0 f i comsuppw:comraise.obj
 0001:0001d8e0       ?_com_raise_error@@YGXJPAUIErrorInfo@@@Z 0041e8e0 f   comsuppw:comraise.obj
 0001:0001d910       ?HRESULT_FROM_WIN32@@YGJK@Z 0041e910 f i comsuppw:invkprxy.obj
 0001:0001d930       ?_com_dispatch_raw_method@@YAJPAUIDispatch@@JGGPAXPB_WZZ 0041e930 f   comsuppw:invkprxy.obj
 0001:0001d970       ?_com_dispatch_raw_propget@@YGJPAUIDispatch@@JGPAX@Z 0041e970 f   comsuppw:invkprxy.obj
 0001:0001d990       ?_com_dispatch_raw_propput@@YAJPAUIDispatch@@JGZZ 0041e990 f   comsuppw:invkprxy.obj
 0001:0001d9f0       ?_com_invoke_helper@@YAJPAUIDispatch@@JGGPAXPB_WPADPAPAUIErrorInfo@@@Z 0041e9f0 f   comsuppw:invkprxy.obj
 0001:0001dfa0       ?WCodeToHRESULT@_com_error@@SGJG@Z 0041efa0 f i comsuppw:invkerr.obj
 0001:0001dfd0       ?_com_handle_excepinfo@@YGJAAUtagEXCEPINFO@@PAPAUIErrorInfo@@@Z 0041efd0 f   comsuppw:invkerr.obj
 0001:0001e0c0       ?VariantInit@@$$J14YGXPAUtagVARIANT@@@Z 0041f0c0 f   oleaut32:OLEAUT32.dll
 0001:0001e0c0       _VariantInit@4             0041f0c0 f   oleaut32:OLEAUT32.dll
 0001:0001e0c6       ?VariantCopy@@$$J18YGJPAUtagVARIANT@@PBU1@@Z 0041f0c6 f   oleaut32:OLEAUT32.dll
 0001:0001e0c6       _VariantCopy@8             0041f0c6 f   oleaut32:OLEAUT32.dll
 0001:0001e0cc       _GetErrorInfo@8            0041f0cc f   oleaut32:OLEAUT32.dll
 0001:0001e0d2       _VariantClear@4            0041f0d2 f   oleaut32:OLEAUT32.dll
 0001:0001e0d8       _VariantChangeType@16      0041f0d8 f   oleaut32:OLEAUT32.dll
 0001:0001e0de       _SetErrorInfo@8            0041f0de f   oleaut32:OLEAUT32.dll
 0001:0001e0e4       _SysFreeString@4           0041f0e4 f   oleaut32:OLEAUT32.dll
 0001:0001e0ea       _CreateErrorInfo@4         0041f0ea f   oleaut32:OLEAUT32.dll
 0001:0001e0f0       _WideCharToMultiByte@32    0041f0f0 f   kernel32:KERNEL32.dll
 0001:0001e0f0       ?WideCharToMultiByte@@$$J232YGHIKPB_WHPADHPBDPAH@Z 0041f0f0 f   kernel32:KERNEL32.dll
 0001:0001e0f6       _LocalFree@4               0041f0f6 f   kernel32:KERNEL32.dll
 0001:0001e0f6       ?LocalFree@@$$J14YGPAXPAX@Z 0041f0f6 f   kernel32:KERNEL32.dll
 0001:0001e0fc       _Sleep@4                   0041f0fc f   kernel32:KERNEL32.dll
 0001:0001e0fc       ?Sleep@@$$J14YGXK@Z        0041f0fc f   kernel32:KERNEL32.dll
 0001:0001e102       _GetModuleHandleW@4        0041f102 f   kernel32:KERNEL32.dll
 0001:0001e102       ?GetModuleHandleW@@$$J14YGPAUHINSTANCE__@@PB_W@Z 0041f102 f   kernel32:KERNEL32.dll
 0001:0001e108       _QueryPerformanceCounter@4 0041f108 f   kernel32:KERNEL32.dll
 0001:0001e10e       _GetCurrentProcessId@0     0041f10e f   kernel32:KERNEL32.dll
 0001:0001e114       _GetCurrentThreadId@0      0041f114 f   kernel32:KERNEL32.dll
 0001:0001e11a       _GetSystemTimeAsFileTime@4 0041f11a f   kernel32:KERNEL32.dll
 0001:0001e120       _GetLastError@0            0041f120 f   kernel32:KERNEL32.dll
 0001:0001e126       _lstrlenW@4                0041f126 f   kernel32:KERNEL32.dll
 0001:0001e130       __alloca_probe_16          0041f130 f   MSVCRT:alloca16.obj
 0001:0001e146       __alloca_probe_8           0041f146     MSVCRT:alloca16.obj
 0001:0001e15c       _memset                    0041f15c f   MSVCRT:MSVCR120.dll
 0001:0001e170       __chkstk                   0041f170 f   MSVCRT:chkstk.obj
 0001:0001e170       __alloca_probe             0041f170 f   MSVCRT:chkstk.obj
 0001:0001e19c       __CorExeMain@0             0041f19c f   MSCOREE:mscoree.dll
 0001:0001e1a4       ???__F?_System_object@?$_Error_objects@H@std@@2V_System_error_category@2@A@@YMXXZ@?A0x651c96ac@@$$FYMXXZ 0041f1a4 f i classroomlist.obj
 0001:0001e1bc       __t2m@???__F?_System_object@?$_Error_objects@H@std@@2V_System_error_category@2@A@@YMXXZ@?A0x651c96ac@@YMXXZ 0041f1bc f i classroomlist.obj
 0001:0001e1c4       ???__F?_Iostream_object@?$_Error_objects@H@std@@2V_Iostream_error_category@2@A@@YMXXZ@?A0x651c96ac@@$$FYMXXZ 0041f1c4 f i classroomlist.obj
 0001:0001e1dc       __t2m@???__F?_Iostream_object@?$_Error_objects@H@std@@2V_Iostream_error_category@2@A@@YMXXZ@?A0x651c96ac@@YMXXZ 0041f1dc f i classroomlist.obj
 0001:0001e1e4       ???__F?_Generic_object@?$_Error_objects@H@std@@2V_Generic_error_category@2@A@@YMXXZ@?A0x651c96ac@@$$FYMXXZ 0041f1e4 f i classroomlist.obj
 0001:0001e1fc       __t2m@???__F?_Generic_object@?$_Error_objects@H@std@@2V_Generic_error_category@2@A@@YMXXZ@?A0x651c96ac@@YMXXZ 0041f1fc f i classroomlist.obj
 0001:0001e204       ???__F?_System_object@?$_Error_objects@H@std@@2V_System_error_category@2@A@@YMXXZ@?A0xef14c5be@@$$FYMXXZ 0041f204 f i Root.obj
 0001:0001e21c       __t2m@???__F?_System_object@?$_Error_objects@H@std@@2V_System_error_category@2@A@@YMXXZ@?A0xef14c5be@@YMXXZ 0041f21c f i Root.obj
 0001:0001e224       ???__F?_Iostream_object@?$_Error_objects@H@std@@2V_Iostream_error_category@2@A@@YMXXZ@?A0xef14c5be@@$$FYMXXZ 0041f224 f i Root.obj
 0001:0001e23c       __t2m@???__F?_Iostream_object@?$_Error_objects@H@std@@2V_Iostream_error_category@2@A@@YMXXZ@?A0xef14c5be@@YMXXZ 0041f23c f i Root.obj
 0001:0001e244       ???__F?_Generic_object@?$_Error_objects@H@std@@2V_Generic_error_category@2@A@@YMXXZ@?A0xef14c5be@@$$FYMXXZ 0041f244 f i Root.obj
 0001:0001e25c       __t2m@???__F?_Generic_object@?$_Error_objects@H@std@@2V_Generic_error_category@2@A@@YMXXZ@?A0xef14c5be@@YMXXZ 0041f25c f i Root.obj
 0002:00000000       __imp__WideCharToMultiByte@32 00420000     kernel32:KERNEL32.dll
 0002:00000004       __imp__Sleep@4             00420004     kernel32:KERNEL32.dll
 0002:00000008       __imp__GetModuleHandleW@4  00420008     kernel32:KERNEL32.dll
 0002:0000000c       __imp__QueryPerformanceCounter@4 0042000c     kernel32:KERNEL32.dll
 0002:00000010       __imp__GetCurrentProcessId@0 00420010     kernel32:KERNEL32.dll
 0002:00000014       __imp__GetCurrentThreadId@0 00420014     kernel32:KERNEL32.dll
 0002:00000018       __imp__GetSystemTimeAsFileTime@4 00420018     kernel32:KERNEL32.dll
 0002:0000001c       __imp__GetLastError@0      0042001c     kernel32:KERNEL32.dll
 0002:00000020       __imp__LocalFree@4         00420020     kernel32:KERNEL32.dll
 0002:00000024       __imp__lstrlenW@4          00420024     kernel32:KERNEL32.dll
 0002:00000028       __imp__IsDebuggerPresent@0 00420028     kernel32:KERNEL32.dll
 0002:0000002c       __imp__IsProcessorFeaturePresent@4 0042002c     kernel32:KERNEL32.dll
 0002:00000030       __imp__EncodePointer@4     00420030     kernel32:KERNEL32.dll
 0002:00000034       __imp__DecodePointer@4     00420034     kernel32:KERNEL32.dll
 0002:00000038       \177KERNEL32_NULL_THUNK_DATA 00420038     kernel32:KERNEL32.dll
 0002:0000003c       __imp_?_Winerror_map@std@@YAPBDH@Z 0042003c     msvcprt:MSVCP120.dll
 0002:00000040       __imp_?_Syserror_map@std@@YAPBDH@Z 00420040     msvcprt:MSVCP120.dll
 0002:00000044       __imp_?_Xbad_alloc@std@@YAXXZ 00420044     msvcprt:MSVCP120.dll
 0002:00000048       __imp_?_Xout_of_range@std@@YAXPBD@Z 00420048     msvcprt:MSVCP120.dll
 0002:0000004c       __imp_?_Xlength_error@std@@YAXPBD@Z 0042004c     msvcprt:MSVCP120.dll
 0002:00000050       __imp_??0id@locale@std@@QAE@I@Z 00420050     msvcprt:MSVCP120.dll
 0002:00000054       \177MSVCP120_NULL_THUNK_DATA 00420054     msvcprt:MSVCP120.dll
 0002:00000058       __imp____setusermatherr    00420058     MSVCRT:MSVCR120.dll
 0002:0000005c       __imp___onexit             0042005c     MSVCRT:MSVCR120.dll
 0002:00000060       __imp____dllonexit         00420060     MSVCRT:MSVCR120.dll
 0002:00000064       __imp___calloc_crt         00420064     MSVCRT:MSVCR120.dll
 0002:00000068       __imp___unlock             00420068     MSVCRT:MSVCR120.dll
 0002:0000006c       __imp____crtTerminateProcess 0042006c     MSVCRT:MSVCR120.dll
 0002:00000070       __imp__memset              00420070     MSVCRT:MSVCR120.dll
 0002:00000074       __imp___lock               00420074     MSVCRT:MSVCR120.dll
 0002:00000078       __imp____crtUnhandledException 00420078     MSVCRT:MSVCR120.dll
 0002:0000007c       __imp_?__ExceptionPtrCopy@@YAXPAXPBX@Z 0042007c     MSVCRT:MSVCR120.dll
 0002:00000080       __imp__memmove             00420080     MSVCRT:MSVCR120.dll
 0002:00000084       __imp_??1exception@std@@UAE@XZ 00420084     MSVCRT:MSVCR120.dll
 0002:00000088       __imp_??0exception@std@@QAE@ABV01@@Z 00420088     MSVCRT:MSVCR120.dll
 0002:0000008c       __imp_??2@YAPAXI@Z         0042008c     MSVCRT:MSVCR120.dll
 0002:00000090       __imp____CxxQueryExceptionSize 00420090     MSVCRT:MSVCR120.dll
 0002:00000094       __imp____CxxExceptionFilter 00420094     MSVCRT:MSVCR120.dll
 0002:00000098       __imp____CxxRegisterExceptionObject 00420098     MSVCRT:MSVCR120.dll
 0002:0000009c       __imp___CxxThrowException@8 0042009c     MSVCRT:MSVCR120.dll
 0002:000000a0       __imp____CxxDetectRethrow  004200a0     MSVCRT:MSVCR120.dll
 0002:000000a4       __imp____CxxUnregisterExceptionObject 004200a4     MSVCRT:MSVCR120.dll
 0002:000000a8       __imp_??_V@YAXPAX@Z        004200a8     MSVCRT:MSVCR120.dll
 0002:000000ac       __imp___cexit              004200ac     MSVCRT:MSVCR120.dll
 0002:000000b0       __imp___amsg_exit          004200b0     MSVCRT:MSVCR120.dll
 0002:000000b4       __imp____FrameUnwindFilter 004200b4     MSVCRT:MSVCR120.dll
 0002:000000b8       __imp_?_query_new_mode@@YAHXZ 004200b8     MSVCRT:MSVCR120.dll
 0002:000000bc       __imp____wgetmainargs      004200bc     MSVCRT:MSVCR120.dll
 0002:000000c0       __imp___XcptFilter         004200c0     MSVCRT:MSVCR120.dll
 0002:000000c4       __imp____set_app_type      004200c4     MSVCRT:MSVCR120.dll
 0002:000000c8       __imp____p__fmode          004200c8     MSVCRT:MSVCR120.dll
 0002:000000cc       __imp____p__commode        004200cc     MSVCRT:MSVCR120.dll
 0002:000000d0       __imp___configthreadlocale 004200d0     MSVCRT:MSVCR120.dll
 0002:000000d4       __imp___crt_debugger_hook  004200d4     MSVCRT:MSVCR120.dll
 0002:000000d8       __imp___except_handler4_common 004200d8     MSVCRT:MSVCR120.dll
 0002:000000dc       __imp_?terminate@@YAXXZ    004200dc     MSVCRT:MSVCR120.dll
 0002:000000e0       __imp_??1type_info@@UAE@XZ 004200e0     MSVCRT:MSVCR120.dll
 0002:000000e4       __imp_??3@YAXPAX@Z         004200e4     MSVCRT:MSVCR120.dll
 0002:000000e8       __imp___purecall           004200e8     MSVCRT:MSVCR120.dll
 0002:000000ec       __imp___hypot              004200ec     MSVCRT:MSVCR120.dll
 0002:000000f0       __imp_?what@exception@std@@UBEPBDXZ 004200f0     MSVCRT:MSVCR120.dll
 0002:000000f4       \177MSVCR120_NULL_THUNK_DATA 004200f4     MSVCRT:MSVCR120.dll
 0002:000000f8       __imp__CreateErrorInfo@4   004200f8     oleaut32:OLEAUT32.dll
 0002:000000fc       __imp__SysFreeString@4     004200fc     oleaut32:OLEAUT32.dll
 0002:00000100       __imp__SetErrorInfo@8      00420100     oleaut32:OLEAUT32.dll
 0002:00000104       __imp__VariantChangeType@16 00420104     oleaut32:OLEAUT32.dll
 0002:00000108       __imp__VariantClear@4      00420108     oleaut32:OLEAUT32.dll
 0002:0000010c       __imp__GetErrorInfo@8      0042010c     oleaut32:OLEAUT32.dll
 0002:00000110       __imp__VariantCopy@8       00420110     oleaut32:OLEAUT32.dll
 0002:00000114       __imp__VariantInit@4       00420114     oleaut32:OLEAUT32.dll
 0002:00000118       \177OLEAUT32_NULL_THUNK_DATA 00420118     oleaut32:OLEAUT32.dll
 0002:0000011c       __imp__PlaySoundW@12       0042011c     Winmm:WINMM.dll
 0002:00000120       \177WINMM_NULL_THUNK_DATA  00420120     Winmm:WINMM.dll
 0002:00000124       __imp___CorExeMain@0       00420124     MSCOREE:mscoree.dll
 0002:00000128       \177mscoree_NULL_THUNK_DATA 00420128     MSCOREE:mscoree.dll
 0002:0000012c       ___xc_a                    0042012c     MSVCRT:cinitexe.obj
 0002:00000130       ___xc_z                    00420130     MSVCRT:cinitexe.obj
 0002:00000134       ___xi_a                    00420134     MSVCRT:cinitexe.obj
 0002:00000140       ___xi_z                    00420140     MSVCRT:cinitexe.obj
 0002:000001c8       ?digits@?$numeric_limits@M@std@@2HB 004201c8     classroomlist.obj
 0002:000001cc       ?digits10@?$numeric_limits@M@std@@2HB 004201cc     classroomlist.obj
 0002:000001d0       ?max_digits10@?$numeric_limits@M@std@@2HB 004201d0     classroomlist.obj
 0002:000001d4       ?max_exponent@?$numeric_limits@M@std@@2HB 004201d4     classroomlist.obj
 0002:000001d8       ?max_exponent10@?$numeric_limits@M@std@@2HB 004201d8     classroomlist.obj
 0002:000001dc       ?min_exponent@?$numeric_limits@M@std@@2HB 004201dc     classroomlist.obj
 0002:000001e0       ?min_exponent10@?$numeric_limits@M@std@@2HB 004201e0     classroomlist.obj
 0002:000001e4       ?digits@?$numeric_limits@N@std@@2HB 004201e4     classroomlist.obj
 0002:000001e8       ?digits10@?$numeric_limits@N@std@@2HB 004201e8     classroomlist.obj
 0002:000001ec       ?max_digits10@?$numeric_limits@N@std@@2HB 004201ec     classroomlist.obj
 0002:000001f0       ?max_exponent@?$numeric_limits@N@std@@2HB 004201f0     classroomlist.obj
 0002:000001f4       ?max_exponent10@?$numeric_limits@N@std@@2HB 004201f4     classroomlist.obj
 0002:000001f8       ?min_exponent@?$numeric_limits@N@std@@2HB 004201f8     classroomlist.obj
 0002:000001fc       ?min_exponent10@?$numeric_limits@N@std@@2HB 004201fc     classroomlist.obj
 0002:00000200       ?digits@?$numeric_limits@O@std@@2HB 00420200     classroomlist.obj
 0002:00000204       ?digits10@?$numeric_limits@O@std@@2HB 00420204     classroomlist.obj
 0002:00000208       ?max_digits10@?$numeric_limits@O@std@@2HB 00420208     classroomlist.obj
 0002:0000020c       ?max_exponent@?$numeric_limits@O@std@@2HB 0042020c     classroomlist.obj
 0002:00000210       ?max_exponent10@?$numeric_limits@O@std@@2HB 00420210     classroomlist.obj
 0002:00000214       ?min_exponent@?$numeric_limits@O@std@@2HB 00420214     classroomlist.obj
 0002:00000218       ?min_exponent10@?$numeric_limits@O@std@@2HB 00420218     classroomlist.obj
 0002:0000021c       ?has_denorm@_Num_base@std@@2W4float_denorm_style@2@B 0042021c     classroomlist.obj
 0002:00000220       ?has_denorm_loss@_Num_base@std@@2_NB 00420220     classroomlist.obj
 0002:00000221       ?has_infinity@_Num_base@std@@2_NB 00420221     classroomlist.obj
 0002:00000222       ?has_quiet_NaN@_Num_base@std@@2_NB 00420222     classroomlist.obj
 0002:00000223       ?has_signaling_NaN@_Num_base@std@@2_NB 00420223     classroomlist.obj
 0002:00000224       ?is_bounded@_Num_base@std@@2_NB 00420224     classroomlist.obj
 0002:00000225       ?is_exact@_Num_base@std@@2_NB 00420225     classroomlist.obj
 0002:00000226       ?is_iec559@_Num_base@std@@2_NB 00420226     classroomlist.obj
 0002:00000227       ?is_integer@_Num_base@std@@2_NB 00420227     classroomlist.obj
 0002:00000228       ?is_modulo@_Num_base@std@@2_NB 00420228     classroomlist.obj
 0002:00000229       ?is_signed@_Num_base@std@@2_NB 00420229     classroomlist.obj
 0002:0000022a       ?is_specialized@_Num_base@std@@2_NB 0042022a     classroomlist.obj
 0002:0000022b       ?tinyness_before@_Num_base@std@@2_NB 0042022b     classroomlist.obj
 0002:0000022c       ?traps@_Num_base@std@@2_NB 0042022c     classroomlist.obj
 0002:00000230       ?round_style@_Num_base@std@@2W4float_round_style@2@B 00420230     classroomlist.obj
 0002:00000234       ?digits@_Num_base@std@@2HB 00420234     classroomlist.obj
 0002:00000238       ?digits10@_Num_base@std@@2HB 00420238     classroomlist.obj
 0002:0000023c       ?max_digits10@_Num_base@std@@2HB 0042023c     classroomlist.obj
 0002:00000240       ?max_exponent@_Num_base@std@@2HB 00420240     classroomlist.obj
 0002:00000244       ?max_exponent10@_Num_base@std@@2HB 00420244     classroomlist.obj
 0002:00000248       ?min_exponent@_Num_base@std@@2HB 00420248     classroomlist.obj
 0002:0000024c       ?min_exponent10@_Num_base@std@@2HB 0042024c     classroomlist.obj
 0002:00000250       ?collate@?$_Locbase@H@std@@2HB 00420250     classroomlist.obj
 0002:00000254       ?ctype@?$_Locbase@H@std@@2HB 00420254     classroomlist.obj
 0002:00000258       ?radix@_Num_base@std@@2HB  00420258     classroomlist.obj
 0002:0000025c       ?monetary@?$_Locbase@H@std@@2HB 0042025c     classroomlist.obj
 0002:00000260       ?numeric@?$_Locbase@H@std@@2HB 00420260     classroomlist.obj
 0002:00000264       ?time@?$_Locbase@H@std@@2HB 00420264     classroomlist.obj
 0002:00000268       ?messages@?$_Locbase@H@std@@2HB 00420268     classroomlist.obj
 0002:0000026c       ?all@?$_Locbase@H@std@@2HB 0042026c     classroomlist.obj
 0002:00000270       ?none@?$_Locbase@H@std@@2HB 00420270     classroomlist.obj
 0002:00000274       ?is_bounded@_Num_int_base@std@@2_NB 00420274     classroomlist.obj
 0002:00000275       ?is_exact@_Num_int_base@std@@2_NB 00420275     classroomlist.obj
 0002:00000276       ?is_integer@_Num_int_base@std@@2_NB 00420276     classroomlist.obj
 0002:00000277       ?is_modulo@_Num_int_base@std@@2_NB 00420277     classroomlist.obj
 0002:00000278       ?is_specialized@_Num_int_base@std@@2_NB 00420278     classroomlist.obj
 0002:0000027c       ?radix@_Num_int_base@std@@2HB 0042027c     classroomlist.obj
 0002:00000280       ?has_denorm@_Num_float_base@std@@2W4float_denorm_style@2@B 00420280     classroomlist.obj
 0002:00000284       ?has_denorm_loss@_Num_float_base@std@@2_NB 00420284     classroomlist.obj
 0002:00000285       ?has_infinity@_Num_float_base@std@@2_NB 00420285     classroomlist.obj
 0002:00000286       ?has_quiet_NaN@_Num_float_base@std@@2_NB 00420286     classroomlist.obj
 0002:00000287       ?has_signaling_NaN@_Num_float_base@std@@2_NB 00420287     classroomlist.obj
 0002:00000288       ?is_bounded@_Num_float_base@std@@2_NB 00420288     classroomlist.obj
 0002:00000289       ?is_exact@_Num_float_base@std@@2_NB 00420289     classroomlist.obj
 0002:0000028a       ?is_iec559@_Num_float_base@std@@2_NB 0042028a     classroomlist.obj
 0002:0000028b       ?is_integer@_Num_float_base@std@@2_NB 0042028b     classroomlist.obj
 0002:0000028c       ?is_modulo@_Num_float_base@std@@2_NB 0042028c     classroomlist.obj
 0002:0000028d       ?is_signed@_Num_float_base@std@@2_NB 0042028d     classroomlist.obj
 0002:0000028e       ?is_specialized@_Num_float_base@std@@2_NB 0042028e     classroomlist.obj
 0002:0000028f       ?tinyness_before@_Num_float_base@std@@2_NB 0042028f     classroomlist.obj
 0002:00000290       ?traps@_Num_float_base@std@@2_NB 00420290     classroomlist.obj
 0002:00000294       ?round_style@_Num_float_base@std@@2W4float_round_style@2@B 00420294     classroomlist.obj
 0002:00000298       ?radix@_Num_float_base@std@@2HB 00420298     classroomlist.obj
 0002:0000029c       ?is_signed@?$numeric_limits@D@std@@2_NB 0042029c     classroomlist.obj
 0002:000002a0       ?digits@?$numeric_limits@D@std@@2HB 004202a0     classroomlist.obj
 0002:000002a4       ?digits10@?$numeric_limits@D@std@@2HB 004202a4     classroomlist.obj
 0002:000002a8       ?is_signed@?$numeric_limits@_W@std@@2_NB 004202a8     classroomlist.obj
 0002:000002ac       ?digits@?$numeric_limits@_W@std@@2HB 004202ac     classroomlist.obj
 0002:000002b0       ?digits10@?$numeric_limits@_W@std@@2HB 004202b0     classroomlist.obj
 0002:000002b4       ?is_modulo@?$numeric_limits@_N@std@@2_NB 004202b4     classroomlist.obj
 0002:000002b5       ?is_signed@?$numeric_limits@_N@std@@2_NB 004202b5     classroomlist.obj
 0002:000002b8       ?digits@?$numeric_limits@_N@std@@2HB 004202b8     classroomlist.obj
 0002:000002bc       ?digits10@?$numeric_limits@_N@std@@2HB 004202bc     classroomlist.obj
 0002:000002c0       ?skipws@?$_Iosb@H@std@@2W4_Fmtflags@12@B 004202c0     classroomlist.obj
 0002:000002c4       ?is_signed@?$numeric_limits@C@std@@2_NB 004202c4     classroomlist.obj
 0002:000002c8       ?unitbuf@?$_Iosb@H@std@@2W4_Fmtflags@12@B 004202c8     classroomlist.obj
 0002:000002cc       ?digits@?$numeric_limits@C@std@@2HB 004202cc     classroomlist.obj
 0002:000002d0       ?uppercase@?$_Iosb@H@std@@2W4_Fmtflags@12@B 004202d0     classroomlist.obj
 0002:000002d4       ?digits10@?$numeric_limits@C@std@@2HB 004202d4     classroomlist.obj
 0002:000002d8       ?showbase@?$_Iosb@H@std@@2W4_Fmtflags@12@B 004202d8     classroomlist.obj
 0002:000002dc       ?showpoint@?$_Iosb@H@std@@2W4_Fmtflags@12@B 004202dc     classroomlist.obj
 0002:000002e0       ?showpos@?$_Iosb@H@std@@2W4_Fmtflags@12@B 004202e0     classroomlist.obj
 0002:000002e4       ?left@?$_Iosb@H@std@@2W4_Fmtflags@12@B 004202e4     classroomlist.obj
 0002:000002e8       ?right@?$_Iosb@H@std@@2W4_Fmtflags@12@B 004202e8     classroomlist.obj
 0002:000002ec       ?internal@?$_Iosb@H@std@@2W4_Fmtflags@12@B 004202ec     classroomlist.obj
 0002:000002f0       ?value@?$integral_constant@I$07@std@@2IB 004202f0     classroomlist.obj
 0002:000002f4       ?dec@?$_Iosb@H@std@@2W4_Fmtflags@12@B 004202f4     classroomlist.obj
 0002:000002f8       ?oct@?$_Iosb@H@std@@2W4_Fmtflags@12@B 004202f8     classroomlist.obj
 0002:000002fc       ?hex@?$_Iosb@H@std@@2W4_Fmtflags@12@B 004202fc     classroomlist.obj
 0002:00000300       ?scientific@?$_Iosb@H@std@@2W4_Fmtflags@12@B 00420300     classroomlist.obj
 0002:00000304       ?is_signed@?$numeric_limits@E@std@@2_NB 00420304     classroomlist.obj
 0002:00000308       ?fixed@?$_Iosb@H@std@@2W4_Fmtflags@12@B 00420308     classroomlist.obj
 0002:0000030c       ?digits@?$numeric_limits@E@std@@2HB 0042030c     classroomlist.obj
 0002:00000310       ?hexfloat@?$_Iosb@H@std@@2W4_Fmtflags@12@B 00420310     classroomlist.obj
 0002:00000314       ?digits10@?$numeric_limits@E@std@@2HB 00420314     classroomlist.obj
 0002:00000318       ?boolalpha@?$_Iosb@H@std@@2W4_Fmtflags@12@B 00420318     classroomlist.obj
 0002:0000031c       ?_Stdio@?$_Iosb@H@std@@2W4_Fmtflags@12@B 0042031c     classroomlist.obj
 0002:00000320       ?adjustfield@?$_Iosb@H@std@@2W4_Fmtflags@12@B 00420320     classroomlist.obj
 0002:00000324       ?basefield@?$_Iosb@H@std@@2W4_Fmtflags@12@B 00420324     classroomlist.obj
 0002:00000328       ?floatfield@?$_Iosb@H@std@@2W4_Fmtflags@12@B 00420328     classroomlist.obj
 0002:0000032c       ?goodbit@?$_Iosb@H@std@@2W4_Iostate@12@B 0042032c     classroomlist.obj
 0002:00000330       ?eofbit@?$_Iosb@H@std@@2W4_Iostate@12@B 00420330     classroomlist.obj
 0002:00000334       ?failbit@?$_Iosb@H@std@@2W4_Iostate@12@B 00420334     classroomlist.obj
 0002:00000338       ?badbit@?$_Iosb@H@std@@2W4_Iostate@12@B 00420338     classroomlist.obj
 0002:0000033c       ?is_signed@?$numeric_limits@F@std@@2_NB 0042033c     classroomlist.obj
 0002:00000340       ?_Hardfail@?$_Iosb@H@std@@2W4_Iostate@12@B 00420340     classroomlist.obj
 0002:00000344       ?digits@?$numeric_limits@F@std@@2HB 00420344     classroomlist.obj
 0002:00000348       ?in@?$_Iosb@H@std@@2W4_Openmode@12@B 00420348     classroomlist.obj
 0002:0000034c       ?value@?$integral_constant@_N$0A@@std@@2_NB 0042034c     classroomlist.obj
 0002:00000350       ?digits10@?$numeric_limits@F@std@@2HB 00420350     classroomlist.obj
 0002:00000354       ?out@?$_Iosb@H@std@@2W4_Openmode@12@B 00420354     classroomlist.obj
 0002:00000358       ?ate@?$_Iosb@H@std@@2W4_Openmode@12@B 00420358     classroomlist.obj
 0002:0000035c       ?value@?$integral_constant@I$03@std@@2IB 0042035c     classroomlist.obj
 0002:00000360       ?app@?$_Iosb@H@std@@2W4_Openmode@12@B 00420360     classroomlist.obj
 0002:00000364       ?trunc@?$_Iosb@H@std@@2W4_Openmode@12@B 00420364     classroomlist.obj
 0002:00000368       ?_Nocreate@?$_Iosb@H@std@@2W4_Openmode@12@B 00420368     classroomlist.obj
 0002:0000036c       ?value@?$integral_constant@_N$00@std@@2_NB 0042036c     classroomlist.obj
 0002:00000370       ?_Noreplace@?$_Iosb@H@std@@2W4_Openmode@12@B 00420370     classroomlist.obj
 0002:00000374       ?binary@?$_Iosb@H@std@@2W4_Openmode@12@B 00420374     classroomlist.obj
 0002:00000378       ?beg@?$_Iosb@H@std@@2W4_Seekdir@12@B 00420378     classroomlist.obj
 0002:0000037c       ?cur@?$_Iosb@H@std@@2W4_Seekdir@12@B 0042037c     classroomlist.obj
 0002:00000380       ?end@?$_Iosb@H@std@@2W4_Seekdir@12@B 00420380     classroomlist.obj
 0002:00000384       ?is_signed@?$numeric_limits@G@std@@2_NB 00420384     classroomlist.obj
 0002:00000388       ?digits@?$numeric_limits@G@std@@2HB 00420388     classroomlist.obj
 0002:0000038c       ?digits10@?$numeric_limits@G@std@@2HB 0042038c     classroomlist.obj
 0002:00000390       ?is_signed@?$numeric_limits@H@std@@2_NB 00420390     classroomlist.obj
 0002:00000394       ?value@?$integral_constant@I$01@std@@2IB 00420394     classroomlist.obj
 0002:00000398       ?digits@?$numeric_limits@H@std@@2HB 00420398     classroomlist.obj
 0002:0000039c       ?digits10@?$numeric_limits@H@std@@2HB 0042039c     classroomlist.obj
 0002:000003a0       ?is_signed@?$numeric_limits@I@std@@2_NB 004203a0     classroomlist.obj
 0002:000003a4       ?digits@?$numeric_limits@I@std@@2HB 004203a4     classroomlist.obj
 0002:000003a8       ?digits10@?$numeric_limits@I@std@@2HB 004203a8     classroomlist.obj
 0002:000003ac       ?value@?$integral_constant@I$00@std@@2IB 004203ac     classroomlist.obj
 0002:000003b0       ?is_signed@?$numeric_limits@J@std@@2_NB 004203b0     classroomlist.obj
 0002:000003b4       ?digits@?$numeric_limits@J@std@@2HB 004203b4     classroomlist.obj
 0002:000003b8       ?digits10@?$numeric_limits@J@std@@2HB 004203b8     classroomlist.obj
 0002:000003bc       ?value@?$_Maximum@$S@std@@2IB 004203bc     classroomlist.obj
 0002:000003c0       ?is_signed@?$numeric_limits@K@std@@2_NB 004203c0     classroomlist.obj
 0002:000003c4       ?digits@?$numeric_limits@K@std@@2HB 004203c4     classroomlist.obj
 0002:000003c8       ?value@?$integral_constant@I$0A@@std@@2IB 004203c8     classroomlist.obj
 0002:000003cc       ?digits10@?$numeric_limits@K@std@@2HB 004203cc     classroomlist.obj
 0002:000003d0       ?is_signed@?$numeric_limits@_J@std@@2_NB 004203d0     classroomlist.obj
 0002:000003d4       ?digits@?$numeric_limits@_J@std@@2HB 004203d4     classroomlist.obj
 0002:000003d8       ?digits10@?$numeric_limits@_J@std@@2HB 004203d8     classroomlist.obj
 0002:000003dc       ?is_signed@?$numeric_limits@_K@std@@2_NB 004203dc     classroomlist.obj
 0002:000003e0       ?digits@?$numeric_limits@_K@std@@2HB 004203e0     classroomlist.obj
 0002:000003e4       ?digits10@?$numeric_limits@_K@std@@2HB 004203e4     classroomlist.obj
 0002:000003e8       ??_C@_0BA@JFNIOLAK@string?5too?5long?$AA@ 004203e8     classroomlist.obj
 0002:000003f8       ??_C@_0BI@CFPLBAOH@invalid?5string?5position?$AA@ 004203f8     classroomlist.obj
 0002:00000410       ??_C@_07DCLBNMLN@generic?$AA@ 00420410     classroomlist.obj
 0002:00000418       ??_C@_0O@BFJCFAAK@unknown?5error?$AA@ 00420418     classroomlist.obj
 0002:00000428       ??_C@_08LLGCOLLL@iostream?$AA@ 00420428     classroomlist.obj
 0002:00000434       ??_C@_0BG@PADBLCHM@iostream?5stream?5error?$AA@ 00420434     classroomlist.obj
 0002:0000044c       ??_C@_06FHFOAHML@system?$AA@ 0042044c     classroomlist.obj
 0002:0000049c       __GUID_00000000_0000_0000_0000_000000000000 0042049c     Root.obj
 0002:000004b0       ??_C@_1EM@LACOBNJH@?$AA?4?$AA?4?$AA?2?$AAM?$AAe?$AAd?$AAi?$AAa?$AAF?$AAi?$AAl?$AAe?$AAs?$AA?2?$AAc?$AAl?$AAi?$AAc?$AAk?$AA?9?$AAb?$AAu?$AAt?$AAt?$AAo?$AAn?$AA?9?$AA1?$AA4?$AA0?$AA8?$AA8@ 004204b0     Root.obj
 0002:00000500       ??_7type_info@@6B@         00420500     MSVCRT:ti_inst.obj
 0002:0000050c       __GUID_90f1a06e_7712_4762_86b5_7a5eba6bdb02 0042050c     MSVCMRT:mstartup.obj
 0002:0000051c       __GUID_90f1a06c_7712_4762_86b5_7a5eba6bdb02 0042051c     MSVCMRT:mstartup.obj
 0002:0000052c       ?ProcessDetach@NativeDll@<CrtImplementationDetails>@@0IB 0042052c     MSVCMRT:mstartup.obj
 0002:00000530       ?ProcessAttach@NativeDll@<CrtImplementationDetails>@@0IB 00420530     MSVCMRT:mstartup.obj
 0002:00000534       ?ThreadAttach@NativeDll@<CrtImplementationDetails>@@0IB 00420534     MSVCMRT:mstartup.obj
 0002:00000538       ?ThreadDetach@NativeDll@<CrtImplementationDetails>@@0IB 00420538     MSVCMRT:mstartup.obj
 0002:0000053c       ?ProcessVerifier@NativeDll@<CrtImplementationDetails>@@0IB 0042053c     MSVCMRT:mstartup.obj
 0002:00000540       __GUID_cb2f6723_ab3a_11d2_9c40_00c04fa30a3e 00420540     MSVCMRT:mstartup.obj
 0002:00000550       __GUID_cb2f6722_ab3a_11d2_9c40_00c04fa30a3e 00420550     MSVCMRT:mstartup.obj
 0002:00000560       __unep@?DoNothing@DefaultDomain@<CrtImplementationDetails>@@$$FCGJPAX@Z 00420560     MSVCMRT:mstartup.obj
 0002:00000564       __unep@?_UninitializeDefaultDomain@LanguageSupport@<CrtImplementationDetails>@@$$FCGJPAX@Z 00420564     MSVCMRT:mstartup.obj
 0002:00000568       __GUID_df0b3d60_548f_101b_8e65_08002b2bd119 00420568     comsuppw:comsupp.obj
 0002:00000578       __GUID_00020400_0000_0000_c000_000000000046 00420578     comsuppw:invkerr.obj
 0002:00000588       __GUID_1cf2b120_547d_101b_8e65_08002b2bd119 00420588     comsuppw:invkerr.obj
 0002:00000598       __load_config_used         00420598     MSVCRT:loadcfg.obj
 0002:0017dd80       ??_R1A@?0A@EA@runtime_error@std@@8 0059dd80     classroomlist.obj
 0002:0017dd9c       ??_R2exception@std@@8      0059dd9c     classroomlist.obj
 0002:0017dda4       ??_R3exception@std@@8      0059dda4     classroomlist.obj
 0002:0017ddb4       ??_R1A@?0A@EA@exception@std@@8 0059ddb4     classroomlist.obj
 0002:0017ddd0       ??_R2runtime_error@std@@8  0059ddd0     classroomlist.obj
 0002:0017dddc       ??_R3runtime_error@std@@8  0059dddc     classroomlist.obj
 0002:0017ddec       ??_R4runtime_error@std@@6B@ 0059ddec     classroomlist.obj
 0002:0017de00       ??_R1A@?0A@EA@error_category@std@@8 0059de00     classroomlist.obj
 0002:0017de1c       ??_R2error_category@std@@8 0059de1c     classroomlist.obj
 0002:0017de24       ??_R3error_category@std@@8 0059de24     classroomlist.obj
 0002:0017de34       ??_R4error_category@std@@6B@ 0059de34     classroomlist.obj
 0002:0017de48       ??_R1A@?0A@EA@_Generic_error_category@std@@8 0059de48     classroomlist.obj
 0002:0017de64       ??_R2_Generic_error_category@std@@8 0059de64     classroomlist.obj
 0002:0017de70       ??_R3_Generic_error_category@std@@8 0059de70     classroomlist.obj
 0002:0017de80       ??_R4_Generic_error_category@std@@6B@ 0059de80     classroomlist.obj
 0002:0017de94       ??_R1A@?0A@EA@_Iostream_error_category@std@@8 0059de94     classroomlist.obj
 0002:0017deb0       ??_R2_Iostream_error_category@std@@8 0059deb0     classroomlist.obj
 0002:0017dec0       ??_R3_Iostream_error_category@std@@8 0059dec0     classroomlist.obj
 0002:0017ded0       ??_R4_Iostream_error_category@std@@6B@ 0059ded0     classroomlist.obj
 0002:0017dee4       ??_R1A@?0A@EA@_System_error_category@std@@8 0059dee4     classroomlist.obj
 0002:0017df00       ??_R2_System_error_category@std@@8 0059df00     classroomlist.obj
 0002:0017df10       ??_R3_System_error_category@std@@8 0059df10     classroomlist.obj
 0002:0017df20       ??_R4_System_error_category@std@@6B@ 0059df20     classroomlist.obj
 0002:0017df34       ??_R1A@?0A@EA@_System_error@std@@8 0059df34     classroomlist.obj
 0002:0017df50       ??_R2_System_error@std@@8  0059df50     classroomlist.obj
 0002:0017df60       ??_R3_System_error@std@@8  0059df60     classroomlist.obj
 0002:0017df70       ??_R4_System_error@std@@6B@ 0059df70     classroomlist.obj
 0002:0017df84       ??_R1A@?0A@EA@system_error@std@@8 0059df84     classroomlist.obj
 0002:0017dfa0       ??_R2system_error@std@@8   0059dfa0     classroomlist.obj
 0002:0017dfb4       ??_R3system_error@std@@8   0059dfb4     classroomlist.obj
 0002:0017dfc4       ??_R4system_error@std@@6B@ 0059dfc4     classroomlist.obj
 0002:0017dfd8       ??_R1A@?0A@EA@failure@ios_base@std@@8 0059dfd8     classroomlist.obj
 0002:0017dff4       ??_R2failure@ios_base@std@@8 0059dff4     classroomlist.obj
 0002:0017e00c       ??_R3failure@ios_base@std@@8 0059e00c     classroomlist.obj
 0002:0017e01c       ??_R4failure@ios_base@std@@6B@ 0059e01c     classroomlist.obj
 0002:0017e030       ??_R1A@?0A@EA@_com_error@@8 0059e030     Root.obj
 0002:0017e04c       ??_R2_com_error@@8         0059e04c     Root.obj
 0002:0017e054       ??_R3_com_error@@8         0059e054     Root.obj
 0002:0017e064       ??_R4_com_error@@6B@       0059e064     Root.obj
 0002:0017e078       ??_R4type_info@@6B@        0059e078     MSVCRT:ti_inst.obj
 0002:0017e08c       ??_R3type_info@@8          0059e08c     MSVCRT:ti_inst.obj
 0002:0017e09c       ??_R2type_info@@8          0059e09c     MSVCRT:ti_inst.obj
 0002:0017e0a4       ??_R1A@?0A@EA@type_info@@8 0059e0a4     MSVCRT:ti_inst.obj
 0002:0017e0c0       ___safe_se_handler_table   0059e0c0     <linker-defined>
 0002:0017e0c4       ___rtc_iaa                 0059e0c4     MSVCRT:initsect.obj
 0002:0017e0c8       ___rtc_izz                 0059e0c8     MSVCRT:initsect.obj
 0002:0017e0cc       ___rtc_taa                 0059e0cc     MSVCRT:initsect.obj
 0002:0017e0d0       ___rtc_tzz                 0059e0d0     MSVCRT:initsect.obj
 0002:0017e134       __TI1?AV_com_error@@       0059e134     comsuppw:comraise.obj
 0002:0017e144       __CTA1?AV_com_error@@      0059e144     comsuppw:comraise.obj
 0002:0017e14c       __CT??_R0?AV_com_error@@@8??0_com_error@@QAE@ABV0@@Z16 0059e14c     comsuppw:comraise.obj
 0002:0017e184       __IMPORT_DESCRIPTOR_MSVCR120 0059e184     MSVCRT:MSVCR120.dll
 0002:0017e198       __IMPORT_DESCRIPTOR_KERNEL32 0059e198     kernel32:KERNEL32.dll
 0002:0017e1ac       __IMPORT_DESCRIPTOR_WINMM  0059e1ac     Winmm:WINMM.dll
 0002:0017e1c0       __IMPORT_DESCRIPTOR_MSVCP120 0059e1c0     msvcprt:MSVCP120.dll
 0002:0017e1d4       __IMPORT_DESCRIPTOR_OLEAUT32 0059e1d4     oleaut32:OLEAUT32.dll
 0002:0017e1e8       __IMPORT_DESCRIPTOR_mscoree 0059e1e8     MSCOREE:mscoree.dll
 0002:0017e1fc       __NULL_IMPORT_DESCRIPTOR   0059e1fc     MSVCRT:MSVCR120.dll
 0003:00000000       __mep@?hypot@@$$J0YANNN@Z  0059f000     classroomlist.obj
 0003:00000004       __mep@??0exception_ptr@std@@$$FQAE@ABV01@@Z 0059f004     classroomlist.obj
 0003:00000008       __mep@??0?$allocator@X@std@@$$FQAE@ABV01@@Z 0059f008     classroomlist.obj
 0003:00000010       ??_7runtime_error@std@@6B@ 0059f010     classroomlist.obj
 0003:00000018       __mep@??0runtime_error@std@@$$FQAE@ABV01@@Z 0059f018     classroomlist.obj
 0003:0000001c       __mep@??0locale@std@@$$FQAE@ABV01@@Z 0059f01c     classroomlist.obj
 0003:00000024       ??_7error_category@std@@6B@ 0059f024     classroomlist.obj
 0003:00000040       ??_7_Generic_error_category@std@@6B@ 0059f040     classroomlist.obj
 0003:0000005c       ??_7_Iostream_error_category@std@@6B@ 0059f05c     classroomlist.obj
 0003:00000078       ??_7_System_error_category@std@@6B@ 0059f078     classroomlist.obj
 0003:00000094       ??_7_System_error@std@@6B@ 0059f094     classroomlist.obj
 0003:0000009c       __mep@??0_System_error@std@@$$FQAE@ABV01@@Z 0059f09c     classroomlist.obj
 0003:000000a0       __mep@??0?$allocator@D@std@@$$FQAE@ABV01@@Z 0059f0a0     classroomlist.obj
 0003:000000a4       __mep@??0?$allocator@_W@std@@$$FQAE@ABV01@@Z 0059f0a4     classroomlist.obj
 0003:000000ac       ??_7system_error@std@@6B@  0059f0ac     classroomlist.obj
 0003:000000b4       __mep@??0system_error@std@@$$FQAE@ABV01@@Z 0059f0b4     classroomlist.obj
 0003:000000b8       __mep@??0_Iterator_base12@std@@$$FQAE@ABU01@@Z 0059f0b8     classroomlist.obj
 0003:000000c0       ??_7failure@ios_base@std@@6B@ 0059f0c0     classroomlist.obj
 0003:000000c8       __mep@??0failure@ios_base@std@@$$FQAE@ABV012@@Z 0059f0c8     classroomlist.obj
 0003:000000cc       __mep@?<MarshalDestroy>@?$basic_string@DU?$char_traits@D@std@@V?$allocator@D@2@@std@@$$FSMXPAV12@@Z 0059f0cc     classroomlist.obj
 0003:000000d0       __mep@??0?$basic_string@DU?$char_traits@D@std@@V?$allocator@D@2@@std@@$$FQAE@ABV01@@Z 0059f0d0     classroomlist.obj
 0003:000000d4       __mep@?<MarshalCopy>@?$basic_string@DU?$char_traits@D@std@@V?$allocator@D@2@@std@@$$FSMXPAV12@0@Z 0059f0d4     classroomlist.obj
 0003:000000d8       __mep@??2@$$FYAPAXIPAX@Z   0059f0d8     classroomlist.obj
 0003:000000dc       __mep@??3@$$FYAXPAX0@Z     0059f0dc     classroomlist.obj
 0003:000000e0       __mep@?copy@?$char_traits@D@std@@$$FSAPADPADPBDI@Z 0059f0e0     classroomlist.obj
 0003:000000e4       __mep@?move@?$char_traits@D@std@@$$FSAPADPADPBDI@Z 0059f0e4     classroomlist.obj
 0003:000000e8       __mep@?assign@?$char_traits@D@std@@$$FSAXAADABD@Z 0059f0e8     classroomlist.obj
 0003:000000ec       __mep@?_Adopt@_Iterator_base12@std@@$$FQAEXPBU_Container_base12@2@@Z 0059f0ec     classroomlist.obj
 0003:000000f0       __mep@??1runtime_error@std@@$$FUAE@XZ 0059f0f0     classroomlist.obj
 0003:000000f4       __mep@??_Eruntime_error@std@@$$FUAEPAXI@Z 0059f0f4     classroomlist.obj
 0003:000000f8       __mep@??0error_category@std@@$$FQAE@XZ 0059f0f8     classroomlist.obj
 0003:000000fc       __mep@??_Eerror_category@std@@$$FUAEPAXI@Z 0059f0fc     classroomlist.obj
 0003:00000100       __mep@?default_error_condition@error_category@std@@$$FUBE?AVerror_condition@2@H@Z 0059f100     classroomlist.obj
 0003:00000104       __mep@?equivalent@error_category@std@@$$FUBE_NABVerror_code@2@H@Z 0059f104     classroomlist.obj
 0003:00000108       __mep@?equivalent@error_category@std@@$$FUBE_NHABVerror_condition@2@@Z 0059f108     classroomlist.obj
 0003:0000010c       __mep@??1error_category@std@@$$FUAE@XZ 0059f10c     classroomlist.obj
 0003:00000110       __mep@??1_System_error@std@@$$FUAE@XZ 0059f110     classroomlist.obj
 0003:00000114       __mep@??1system_error@std@@$$FUAE@XZ 0059f114     classroomlist.obj
 0003:00000118       __mep@??0_Generic_error_category@std@@$$FQAE@XZ 0059f118     classroomlist.obj
 0003:0000011c       __mep@??_E_Generic_error_category@std@@$$FUAEPAXI@Z 0059f11c     classroomlist.obj
 0003:00000120       __mep@?name@_Generic_error_category@std@@$$FUBEPBDXZ 0059f120     classroomlist.obj
 0003:00000124       __mep@?message@_Generic_error_category@std@@$$FUBE?AV?$basic_string@DU?$char_traits@D@std@@V?$allocator@D@2@@2@H@Z 0059f124     classroomlist.obj
 0003:00000128       __mep@??1_Generic_error_category@std@@$$FUAE@XZ 0059f128     classroomlist.obj
 0003:0000012c       __mep@??0_Iostream_error_category@std@@$$FQAE@XZ 0059f12c     classroomlist.obj
 0003:00000130       __mep@??_E_Iostream_error_category@std@@$$FUAEPAXI@Z 0059f130     classroomlist.obj
 0003:00000134       __mep@?name@_Iostream_error_category@std@@$$FUBEPBDXZ 0059f134     classroomlist.obj
 0003:00000138       __mep@?message@_Iostream_error_category@std@@$$FUBE?AV?$basic_string@DU?$char_traits@D@std@@V?$allocator@D@2@@2@H@Z 0059f138     classroomlist.obj
 0003:0000013c       __mep@??1_Iostream_error_category@std@@$$FUAE@XZ 0059f13c     classroomlist.obj
 0003:00000140       __mep@??0_System_error_category@std@@$$FQAE@XZ 0059f140     classroomlist.obj
 0003:00000144       __mep@??_E_System_error_category@std@@$$FUAEPAXI@Z 0059f144     classroomlist.obj
 0003:00000148       __mep@?name@_System_error_category@std@@$$FUBEPBDXZ 0059f148     classroomlist.obj
 0003:0000014c       __mep@?message@_System_error_category@std@@$$FUBE?AV?$basic_string@DU?$char_traits@D@std@@V?$allocator@D@2@@2@H@Z 0059f14c     classroomlist.obj
 0003:00000150       __mep@?default_error_condition@_System_error_category@std@@$$FUBE?AVerror_condition@2@H@Z 0059f150     classroomlist.obj
 0003:00000154       __mep@??1_System_error_category@std@@$$FUAE@XZ 0059f154     classroomlist.obj
 0003:00000158       __mep@??_E_System_error@std@@$$FUAEPAXI@Z 0059f158     classroomlist.obj
 0003:0000015c       __mep@?size@?$basic_string@DU?$char_traits@D@std@@V?$allocator@D@2@@std@@$$FQBEIXZ 0059f15c     classroomlist.obj
 0003:00000160       __mep@??0?$allocator@D@std@@$$FQAE@XZ 0059f160     classroomlist.obj
 0003:00000164       __mep@?_Xlen@?$basic_string@DU?$char_traits@D@std@@V?$allocator@D@2@@std@@$$FQBEXXZ 0059f164     classroomlist.obj
 0003:00000168       __mep@?_Xran@?$basic_string@DU?$char_traits@D@std@@V?$allocator@D@2@@std@@$$FQBEXXZ 0059f168     classroomlist.obj
 0003:0000016c       __mep@??0?$_Wrap_alloc@V?$allocator@D@std@@@std@@$$FQAE@XZ 0059f16c     classroomlist.obj
 0003:00000170       __mep@??0?$_String_val@U?$_Simple_types@D@std@@@std@@$$FQAE@XZ 0059f170     classroomlist.obj
 0003:00000174       __mep@?deallocate@?$allocator@D@std@@$$FQAEXPADI@Z 0059f174     classroomlist.obj
 0003:00000178       __mep@?max_size@?$allocator@D@std@@$$FQBEIXZ 0059f178     classroomlist.obj
 0003:0000017c       __mep@??$addressof@D@std@@$$FYAPADAAD@Z 0059f17c     classroomlist.obj
 0003:00000180       __mep@??$_Allocate@D@std@@$$FYAPADIPAD@Z 0059f180     classroomlist.obj
 0003:00000184       __mep@??$forward@AAPAD@std@@$$FYAAAPADAAPAD@Z 0059f184     classroomlist.obj
 0003:00000188       __mep@??$construct@PADAAPAD@?$allocator@D@std@@$$FQAEXPAPADAAPAD@Z 0059f188     classroomlist.obj
 0003:0000018c       __mep@??$destroy@PAD@?$allocator@D@std@@$$FQAEXPAPAD@Z 0059f18c     classroomlist.obj
 0003:00000190       __mep@??4_Iterator_base12@std@@$$FQAEAAU01@ABU01@@Z 0059f190     classroomlist.obj
 0003:00000194       __mep@??_Esystem_error@std@@$$FUAEPAXI@Z 0059f194     classroomlist.obj
 0003:00000198       __mep@??0?$_String_alloc@$0A@U?$_String_base_types@DV?$allocator@D@std@@@std@@@std@@$$FQAE@ABV?$allocator@D@1@@Z 0059f198     classroomlist.obj
 0003:0000019c       __mep@?_Getal@?$_String_alloc@$0A@U?$_String_base_types@DV?$allocator@D@std@@@std@@@std@@$$FQBE?AU?$_Wrap_alloc@V?$allocator@D@std@@@2@XZ 0059f19c     classroomlist.obj
 0003:000001a0       __mep@?_Myptr@?$_String_val@U?$_Simple_types@D@std@@@std@@$$FQBEPBDXZ 0059f1a0     classroomlist.obj
 0003:000001a4       __mep@??0?$_Wrap_alloc@V?$allocator@D@std@@@std@@$$FQAE@ABV?$allocator@D@1@@Z 0059f1a4     classroomlist.obj
 0003:000001a8       __mep@?deallocate@?$_Wrap_alloc@V?$allocator@D@std@@@std@@$$FQAEXPADI@Z 0059f1a8     classroomlist.obj
 0003:000001ac       __mep@?_Myptr@?$_String_val@U?$_Simple_types@D@std@@@std@@$$FQAEPADXZ 0059f1ac     classroomlist.obj
 0003:000001b0       __mep@?select_on_container_copy_construction@?$allocator@D@std@@$$FQBE?AV12@XZ 0059f1b0     classroomlist.obj
 0003:000001b4       __mep@?allocate@?$allocator@D@std@@$$FQAEPADI@Z 0059f1b4     classroomlist.obj
 0003:000001b8       __mep@?max_size@?$allocator_traits@V?$allocator@D@std@@@std@@$$FSAIABV?$allocator@D@2@@Z 0059f1b8     classroomlist.obj
 0003:000001bc       __mep@??$construct@PADAAPAD@?$allocator_traits@V?$allocator@D@std@@@std@@$$FSAXAAV?$allocator@D@1@PAPADAAPAD@Z 0059f1bc     classroomlist.obj
 0003:000001c0       __mep@??$destroy@PAD@?$allocator_traits@V?$allocator@D@std@@@std@@$$FSAXAAV?$allocator@D@1@PAPAD@Z 0059f1c0     classroomlist.obj
 0003:000001c4       __mep@??_Efailure@ios_base@std@@$$FUAEPAXI@Z 0059f1c4     classroomlist.obj
 0003:000001c8       __mep@?_Eos@?$basic_string@DU?$char_traits@D@std@@V?$allocator@D@2@@std@@$$FQAEXI@Z 0059f1c8     classroomlist.obj
 0003:000001cc       __mep@?select_on_container_copy_construction@?$allocator_traits@V?$allocator@D@std@@@std@@$$FSA?AV?$allocator@D@2@ABV32@@Z 0059f1cc     classroomlist.obj
 0003:000001d0       __mep@?allocate@?$_Wrap_alloc@V?$allocator@D@std@@@std@@$$FQAEPADI@Z 0059f1d0     classroomlist.obj
 0003:000001d4       __mep@?max_size@?$_Wrap_alloc@V?$allocator@D@std@@@std@@$$FQBEIXZ 0059f1d4     classroomlist.obj
 0003:000001d8       __mep@??$construct@PADAAPAD@?$_Wrap_alloc@V?$allocator@D@std@@@std@@$$FQAEXPAPADAAPAD@Z 0059f1d8     classroomlist.obj
 0003:000001dc       __mep@??$destroy@PAD@?$_Wrap_alloc@V?$allocator@D@std@@@std@@$$FQAEXPAPAD@Z 0059f1dc     classroomlist.obj
 0003:000001e0       __mep@?_Tidy@?$basic_string@DU?$char_traits@D@std@@V?$allocator@D@2@@std@@$$FQAEX_NI@Z 0059f1e0     classroomlist.obj
 0003:000001e4       __mep@?select_on_container_copy_construction@?$_Wrap_alloc@V?$allocator@D@std@@@std@@$$FQBE?AU12@XZ 0059f1e4     classroomlist.obj
 0003:000001e8       __mep@?erase@?$basic_string@DU?$char_traits@D@std@@V?$allocator@D@2@@std@@$$FQAEAAV12@I@Z 0059f1e8     classroomlist.obj
 0003:000001ec       __mep@?erase@?$basic_string@DU?$char_traits@D@std@@V?$allocator@D@2@@std@@$$FQAEAAV12@II@Z 0059f1ec     classroomlist.obj
 0003:000001f0       __mep@?max_size@?$basic_string@DU?$char_traits@D@std@@V?$allocator@D@2@@std@@$$FQBEIXZ 0059f1f0     classroomlist.obj
 0003:000001f4       __mep@?_Copy@?$basic_string@DU?$char_traits@D@std@@V?$allocator@D@2@@std@@$$FQAEXII@Z 0059f1f4     classroomlist.obj
 0003:000001f8       __mep@??1?$basic_string@DU?$char_traits@D@std@@V?$allocator@D@2@@std@@$$FQAE@XZ 0059f1f8     classroomlist.obj
 0003:000001fc       __mep@?_Grow@?$basic_string@DU?$char_traits@D@std@@V?$allocator@D@2@@std@@$$FQAE_NI_N@Z 0059f1fc     classroomlist.obj
 0003:00000200       __mep@?assign@?$basic_string@DU?$char_traits@D@std@@V?$allocator@D@2@@std@@$$FQAEAAV12@ABV12@II@Z 0059f200     classroomlist.obj
 0003:00000204       __mep@??0error_condition@std@@$$FQAE@HABVerror_category@1@@Z 0059f204     classroomlist.obj
 0003:00000208       __mep@??8error_category@std@@$$FQBE_NABV01@@Z 0059f208     classroomlist.obj
 0003:0000020c       __mep@?value@error_code@std@@$$FQBEHXZ 0059f20c     classroomlist.obj
 0003:00000210       __mep@?category@error_code@std@@$$FQBEABVerror_category@2@XZ 0059f210     classroomlist.obj
 0003:00000214       __mep@??8error_condition@std@@$$FQBE_NABV01@@Z 0059f214     classroomlist.obj
 0003:00000218       __mep@?value@error_condition@std@@$$FQBEHXZ 0059f218     classroomlist.obj
 0003:0000021c       __mep@?category@error_condition@std@@$$FQBEABVerror_category@2@XZ 0059f21c     classroomlist.obj
 0003:00000220       __mep@??0?$basic_string@DU?$char_traits@D@std@@V?$allocator@D@2@@std@@$$FQAE@PBD@Z 0059f220     classroomlist.obj
 0003:00000224       __mep@?assign@?$basic_string@DU?$char_traits@D@std@@V?$allocator@D@2@@std@@$$FQAEAAV12@PBD@Z 0059f224     classroomlist.obj
 0003:00000228       __mep@?length@?$char_traits@D@std@@$$FSAIPBD@Z 0059f228     classroomlist.obj
 0003:0000022c       __mep@?assign@?$basic_string@DU?$char_traits@D@std@@V?$allocator@D@2@@std@@$$FQAEAAV12@PBDI@Z 0059f22c     classroomlist.obj
 0003:00000230       __mep@?_Inside@?$basic_string@DU?$char_traits@D@std@@V?$allocator@D@2@@std@@$$FQAE_NPBD@Z 0059f230     classroomlist.obj
 0003:00000234       __mep@?generic_category@std@@$$FYAABVerror_category@1@XZ 0059f234     classroomlist.obj
 0003:00000238       __mep@?system_category@std@@$$FYAABVerror_category@1@XZ 0059f238     classroomlist.obj
 0003:0000023c       __mep@??1failure@ios_base@std@@$$FUAE@XZ 0059f23c     classroomlist.obj
 0003:00000240       ?_Generic_object@?$_Error_objects@H@std@@2V_Generic_error_category@2@A 0059f240     classroomlist.obj
 0003:00000244       ?_Iostream_object@?$_Error_objects@H@std@@2V_Iostream_error_category@2@A 0059f244     classroomlist.obj
 0003:00000248       ?_System_object@?$_Error_objects@H@std@@2V_System_error_category@2@A 0059f248     classroomlist.obj
 0003:0000024c       __mep@???__F?_System_object@?$_Error_objects@H@std@@2V_System_error_category@2@A@@YMXXZ@?A0x651c96ac@@$$FYMXXZ 0059f24c     classroomlist.obj
 0003:00000250       __mep@???__F?_Iostream_object@?$_Error_objects@H@std@@2V_Iostream_error_category@2@A@@YMXXZ@?A0x651c96ac@@$$FYMXXZ 0059f250     classroomlist.obj
 0003:00000254       __mep@???__F?_Generic_object@?$_Error_objects@H@std@@2V_Generic_error_category@2@A@@YMXXZ@?A0x651c96ac@@$$FYMXXZ 0059f254     classroomlist.obj
 0003:00000258       __mep@???__E?id@?$num_put@DV?$back_insert_iterator@V?$basic_string@DU?$char_traits@D@std@@V?$allocator@D@2@@std@@@std@@@std@@2V0locale@2@A@@YMXXZ@?A0x651c96ac@@$$FYMXXZ 0059f258     classroomlist.obj
 0003:0000025c       __mep@???__E?id@?$num_put@_WV?$back_insert_iterator@V?$basic_string@_WU?$char_traits@_W@std@@V?$allocator@_W@2@@std@@@std@@@std@@2V0locale@2@A@@YMXXZ@?A0x651c96ac@@$$FYMXXZ 0059f25c     classroomlist.obj
 0003:00000260       __mep@???__E?_Generic_object@?$_Error_objects@H@std@@2V_Generic_error_category@2@A@@YMXXZ@?A0x651c96ac@@$$FYMXXZ 0059f260     classroomlist.obj
 0003:00000264       __mep@???__E?_Iostream_object@?$_Error_objects@H@std@@2V_Iostream_error_category@2@A@@YMXXZ@?A0x651c96ac@@$$FYMXXZ 0059f264     classroomlist.obj
 0003:00000268       __mep@???__E?_System_object@?$_Error_objects@H@std@@2V_System_error_category@2@A@@YMXXZ@?A0x651c96ac@@$$FYMXXZ 0059f268     classroomlist.obj
 0003:0000026c       __mep@??0_variant_t@@$$FQAE@ABV0@@Z 0059f26c     Root.obj
 0003:00000274       ??_7_com_error@@6B@        0059f274     Root.obj
 0003:00000278       __mep@??0_com_error@@$$FQAE@ABV0@@Z 0059f278     Root.obj
 0003:0000027c       __mep@??0_bstr_t@@$$FQAE@ABV0@@Z 0059f27c     Root.obj
 0003:00000280       __mep@?CheckError@_com_util@@$$FYAXJ@Z 0059f280     Root.obj
 0003:00000284       __mep@?AddRef@Data_t@_bstr_t@@$$FQAEKXZ 0059f284     Root.obj
 0003:00000288       __mep@??_E_com_error@@$$FUAEPAXI@Z 0059f288     Root.obj
 0003:0000028c       __mep@?assign@?$char_traits@D@std@@$$FSAPADPADID@Z 0059f28c     Root.obj
 0003:00000290       __mep@?PtrToStringChars@@$$FYMP$CB_WP$ABVString@System@@@Z 0059f290     Root.obj
 0003:00000294       __mep@?GetAnsiStringSize@details@interop@msclr@@$$FYMIP$AAVString@System@@@Z 0059f294     Root.obj
 0003:00000298       __mep@?WriteAnsiString@details@interop@msclr@@$$FYMXPADIP$AAVString@System@@@Z 0059f298     Root.obj
 0003:0000029c       __mep@??0?$char_buffer@D@details@interop@msclr@@$$FQAE@I@Z 0059f29c     Root.obj
 0003:000002a0       __mep@??1?$char_buffer@D@details@interop@msclr@@$$FQAE@XZ 0059f2a0     Root.obj
 0003:000002a4       __mep@?get@?$char_buffer@D@details@interop@msclr@@$$FQBEPADXZ 0059f2a4     Root.obj
 0003:000002a8       __mep@?release@?$char_buffer@D@details@interop@msclr@@$$FQAEPADXZ 0059f2a8     Root.obj
 0003:000002ac       __mep@??$forward@V?$basic_string@DU?$char_traits@D@std@@V?$allocator@D@2@@std@@@std@@$$FYA$$QAV?$basic_string@DU?$char_traits@D@std@@V?$allocator@D@2@@0@AAV10@@Z 0059f2ac     Root.obj
 0003:000002b0       __mep@?_AddRef@_bstr_t@@$$FAAEXXZ 0059f2b0     Root.obj
 0003:000002b4       __mep@?_Chassign@?$basic_string@DU?$char_traits@D@std@@V?$allocator@D@2@@std@@$$FQAEXIID@Z 0059f2b4     Root.obj
 0003:000002b8       __mep@??A?$basic_string@DU?$char_traits@D@std@@V?$allocator@D@2@@std@@$$FQAEAADI@Z 0059f2b8     Root.obj
 0003:000002bc       __mep@??0?$basic_string@DU?$char_traits@D@std@@V?$allocator@D@2@@std@@$$FQAE@XZ 0059f2bc     Root.obj
 0003:000002c0       __mep@?_Assign_rv@?$basic_string@DU?$char_traits@D@std@@V?$allocator@D@2@@std@@$$FQAEX$$QAV12@@Z 0059f2c0     Root.obj
 0003:000002c4       __mep@??0?$basic_string@DU?$char_traits@D@std@@V?$allocator@D@2@@std@@$$FQAE@$$QAV01@@Z 0059f2c4     Root.obj
 0003:000002c8       __mep@?append@?$basic_string@DU?$char_traits@D@std@@V?$allocator@D@2@@std@@$$FQAEAAV12@ID@Z 0059f2c8     Root.obj
 0003:000002cc       __mep@?resize@?$basic_string@DU?$char_traits@D@std@@V?$allocator@D@2@@std@@$$FQAEXID@Z 0059f2cc     Root.obj
 0003:000002d0       __mep@?resize@?$basic_string@DU?$char_traits@D@std@@V?$allocator@D@2@@std@@$$FQAEXI@Z 0059f2d0     Root.obj
 0003:000002d4       __mep@??$marshal_as@V?$basic_string@DU?$char_traits@D@std@@V?$allocator@D@2@@std@@P$AAVString@System@@@interop@msclr@@$$FYM?AV?$basic_string@DU?$char_traits@D@std@@V?$allocator@D@2@@std@@ABQ$AAVString@System@@@Z 0059f2d4     Root.obj
 0003:000002d8       __mep@??1_com_error@@$$FUAE@XZ 0059f2d8     Root.obj
 0003:000002dc       __mep@???__F?_System_object@?$_Error_objects@H@std@@2V_System_error_category@2@A@@YMXXZ@?A0xef14c5be@@$$FYMXXZ 0059f2dc     Root.obj
 0003:000002e0       __mep@???__F?_Iostream_object@?$_Error_objects@H@std@@2V_Iostream_error_category@2@A@@YMXXZ@?A0xef14c5be@@$$FYMXXZ 0059f2e0     Root.obj
 0003:000002e4       __mep@???__F?_Generic_object@?$_Error_objects@H@std@@2V_Generic_error_category@2@A@@YMXXZ@?A0xef14c5be@@$$FYMXXZ 0059f2e4     Root.obj
 0003:000002e8       __mep@???__E?id@?$num_put@DV?$back_insert_iterator@V?$basic_string@DU?$char_traits@D@std@@V?$allocator@D@2@@std@@@std@@@std@@2V0locale@2@A@@YMXXZ@?A0xef14c5be@@$$FYMXXZ 0059f2e8     Root.obj
 0003:000002ec       __mep@???__E?id@?$num_put@_WV?$back_insert_iterator@V?$basic_string@_WU?$char_traits@_W@std@@V?$allocator@_W@2@@std@@@std@@@std@@2V0locale@2@A@@YMXXZ@?A0xef14c5be@@$$FYMXXZ 0059f2ec     Root.obj
 0003:000002f0       __mep@???__E?_Generic_object@?$_Error_objects@H@std@@2V_Generic_error_category@2@A@@YMXXZ@?A0xef14c5be@@$$FYMXXZ 0059f2f0     Root.obj
 0003:000002f4       __mep@???__E?_Iostream_object@?$_Error_objects@H@std@@2V_Iostream_error_category@2@A@@YMXXZ@?A0xef14c5be@@$$FYMXXZ 0059f2f4     Root.obj
 0003:000002f8       __mep@???__E?_System_object@?$_Error_objects@H@std@@2V_System_error_category@2@A@@YMXXZ@?A0xef14c5be@@$$FYMXXZ 0059f2f8     Root.obj
 0003:00000300       ___security_cookie         0059f300     MSVCRT:gs_cookie.obj
 0003:00000304       ___security_cookie_complement 0059f304     MSVCRT:gs_cookie.obj
 0003:00000308       ?hasPerProcess@DefaultDomain@<CrtImplementationDetails>@@0W4State@TriBool@2@A 0059f308     MSVCMRT:mstartup.obj
 0003:0000030c       ?hasNative@DefaultDomain@<CrtImplementationDetails>@@0W4State@TriBool@2@A 0059f30c     MSVCMRT:mstartup.obj
 0003:00000310       __mep@?.cctor@@$$FYMXXZ    0059f310     MSVCMRT:mstartup.obj
 0003:00000314       __mep@?IsInDllMain@NativeDll@<CrtImplementationDetails>@@$$FSA_NXZ 0059f314     MSVCMRT:mstartup.obj
 0003:00000318       __mep@?IsInProcessAttach@NativeDll@<CrtImplementationDetails>@@$$FSA_NXZ 0059f318     MSVCMRT:mstartup.obj
 0003:0000031c       __mep@?IsInProcessDetach@NativeDll@<CrtImplementationDetails>@@$$FSA_NXZ 0059f31c     MSVCMRT:mstartup.obj
 0003:00000320       __mep@?IsSafeForManagedCode@NativeDll@<CrtImplementationDetails>@@$$FSA_NXZ 0059f320     MSVCMRT:mstartup.obj
 0003:00000324       __mep@?ThrowModuleLoadException@<CrtImplementationDetails>@@$$FYMXP$AAVString@System@@@Z 0059f324     MSVCMRT:mstartup.obj
 0003:00000328       __mep@?ThrowModuleLoadException@<CrtImplementationDetails>@@$$FYMXP$AAVString@System@@P$AAVException@3@@Z 0059f328     MSVCMRT:mstartup.obj
 0003:0000032c       __mep@?RegisterModuleUninitializer@<CrtImplementationDetails>@@$$FYMXP$AAVEventHandler@System@@@Z 0059f32c     MSVCMRT:mstartup.obj
 0003:00000330       __mep@?FromGUID@<CrtImplementationDetails>@@$$FYM?AVGuid@System@@ABU_GUID@@@Z 0059f330     MSVCMRT:mstartup.obj
 0003:00000334       __mep@?__get_default_appdomain@@$$FYAJPAPAUIUnknown@@@Z 0059f334     MSVCMRT:mstartup.obj
 0003:00000338       __mep@?__release_appdomain@@$$FYAXPAUIUnknown@@@Z 0059f338     MSVCMRT:mstartup.obj
 0003:0000033c       __mep@?GetDefaultDomain@<CrtImplementationDetails>@@$$FYMP$AAVAppDomain@System@@XZ 0059f33c     MSVCMRT:mstartup.obj
 0003:00000340       __mep@?DoCallBackInDefaultDomain@<CrtImplementationDetails>@@$$FYAXP6GJPAX@Z0@Z 0059f340     MSVCMRT:mstartup.obj
 0003:00000344       __mep@?DoNothing@DefaultDomain@<CrtImplementationDetails>@@$$FCGJPAX@Z 0059f344     MSVCMRT:mstartup.obj
 0003:00000348       __mep@?HasPerProcess@DefaultDomain@<CrtImplementationDetails>@@$$FSA_NXZ 0059f348     MSVCMRT:mstartup.obj
 0003:0000034c       __mep@?HasNative@DefaultDomain@<CrtImplementationDetails>@@$$FSA_NXZ 0059f34c     MSVCMRT:mstartup.obj
 0003:00000350       __mep@?NeedsInitialization@DefaultDomain@<CrtImplementationDetails>@@$$FSA_NXZ 0059f350     MSVCMRT:mstartup.obj
 0003:00000354       __mep@?NeedsUninitialization@DefaultDomain@<CrtImplementationDetails>@@$$FSA_NXZ 0059f354     MSVCMRT:mstartup.obj
 0003:00000358       __mep@?Initialize@DefaultDomain@<CrtImplementationDetails>@@$$FSAXXZ 0059f358     MSVCMRT:mstartup.obj
 0003:0000035c       __mep@?UninitializeAppDomain@LanguageSupport@<CrtImplementationDetails>@@$$FCAXXZ 0059f35c     MSVCMRT:mstartup.obj
 0003:00000360       __mep@?_UninitializeDefaultDomain@LanguageSupport@<CrtImplementationDetails>@@$$FCGJPAX@Z 0059f360     MSVCMRT:mstartup.obj
 0003:00000364       __mep@?UninitializeDefaultDomain@LanguageSupport@<CrtImplementationDetails>@@$$FCAXXZ 0059f364     MSVCMRT:mstartup.obj
 0003:00000368       __mep@?DomainUnload@LanguageSupport@<CrtImplementationDetails>@@$$FCMXP$AAVObject@System@@P$AAVEventArgs@4@@Z 0059f368     MSVCMRT:mstartup.obj
 0003:0000036c       __mep@??0?$gcroot@P$AAVString@System@@@@$$FQAE@XZ 0059f36c     MSVCMRT:mstartup.obj
 0003:00000370       __mep@??1?$gcroot@P$AAVString@System@@@@$$FQAE@XZ 0059f370     MSVCMRT:mstartup.obj
 0003:00000374       __mep@??4?$gcroot@P$AAVString@System@@@@$$FQAMAAU0@P$AAVString@System@@@Z 0059f374     MSVCMRT:mstartup.obj
 0003:00000378       __mep@??B?$gcroot@P$AAVString@System@@@@$$FQBMP$AAVString@System@@XZ 0059f378     MSVCMRT:mstartup.obj
 0003:0000037c       __mep@?ThrowNestedModuleLoadException@<CrtImplementationDetails>@@$$FYMXP$AAVException@System@@0@Z 0059f37c     MSVCMRT:mstartup.obj
 0003:00000380       __mep@?InitializeVtables@LanguageSupport@<CrtImplementationDetails>@@$$FAAEXXZ 0059f380     MSVCMRT:mstartup.obj
 0003:00000384       __mep@?InitializeDefaultAppDomain@LanguageSupport@<CrtImplementationDetails>@@$$FAAEXXZ 0059f384     MSVCMRT:mstartup.obj
 0003:00000388       __mep@?InitializeNative@LanguageSupport@<CrtImplementationDetails>@@$$FAAEXXZ 0059f388     MSVCMRT:mstartup.obj
 0003:0000038c       __mep@?InitializePerProcess@LanguageSupport@<CrtImplementationDetails>@@$$FAAEXXZ 0059f38c     MSVCMRT:mstartup.obj
 0003:00000390       __mep@?InitializePerAppDomain@LanguageSupport@<CrtImplementationDetails>@@$$FAAEXXZ 0059f390     MSVCMRT:mstartup.obj
 0003:00000394       __mep@?InitializeUninitializer@LanguageSupport@<CrtImplementationDetails>@@$$FAAEXXZ 0059f394     MSVCMRT:mstartup.obj
 0003:00000398       __mep@?_Initialize@LanguageSupport@<CrtImplementationDetails>@@$$FAAEXXZ 0059f398     MSVCMRT:mstartup.obj
 0003:0000039c       __mep@?Cleanup@LanguageSupport@<CrtImplementationDetails>@@$$FAAMXP$AAVException@System@@@Z 0059f39c     MSVCMRT:mstartup.obj
 0003:000003a0       __mep@??0LanguageSupport@<CrtImplementationDetails>@@$$FQAE@XZ 0059f3a0     MSVCMRT:mstartup.obj
 0003:000003a4       __mep@??1LanguageSupport@<CrtImplementationDetails>@@$$FQAE@XZ 0059f3a4     MSVCMRT:mstartup.obj
 0003:000003a8       __mep@?Initialize@LanguageSupport@<CrtImplementationDetails>@@$$FQAEXXZ 0059f3a8     MSVCMRT:mstartup.obj
 0003:000003ac       __mep@???__E?Initialized@CurrentDomain@<CrtImplementationDetails>@@$$Q2HA@@YMXXZ@?A0xd2508fec@@$$FYMXXZ 0059f3ac     MSVCMRT:mstartup.obj
 0003:000003b0       __mep@???__E?Uninitialized@CurrentDomain@<CrtImplementationDetails>@@$$Q2HA@@YMXXZ@?A0xd2508fec@@$$FYMXXZ 0059f3b0     MSVCMRT:mstartup.obj
 0003:000003b4       __mep@???__E?IsDefaultDomain@CurrentDomain@<CrtImplementationDetails>@@$$Q2_NA@@YMXXZ@?A0xd2508fec@@$$FYMXXZ 0059f3b4     MSVCMRT:mstartup.obj
 0003:000003b8       __mep@???__E?InitializedVtables@CurrentDomain@<CrtImplementationDetails>@@$$Q2W4State@Progress@2@A@@YMXXZ@?A0xd2508fec@@$$FYMXXZ 0059f3b8     MSVCMRT:mstartup.obj
 0003:000003bc       __mep@???__E?InitializedNative@CurrentDomain@<CrtImplementationDetails>@@$$Q2W4State@Progress@2@A@@YMXXZ@?A0xd2508fec@@$$FYMXXZ 0059f3bc     MSVCMRT:mstartup.obj
 0003:000003c0       __mep@???__E?InitializedPerProcess@CurrentDomain@<CrtImplementationDetails>@@$$Q2W4State@Progress@2@A@@YMXXZ@?A0xd2508fec@@$$FYMXXZ 0059f3c0     MSVCMRT:mstartup.obj
 0003:000003c4       __mep@???__E?InitializedPerAppDomain@CurrentDomain@<CrtImplementationDetails>@@$$Q2W4State@Progress@2@A@@YMXXZ@?A0xd2508fec@@$$FYMXXZ 0059f3c4     MSVCMRT:mstartup.obj
 0003:000003c8       __mep@?___CxxCallUnwindDtor@@$$J0YMXP6MXPAX@Z0@Z 0059f3c8     MSVCMRT:managdeh.obj
 0003:000003cc       __mep@?___CxxCallUnwindDelDtor@@$$J0YMXP6MXPAX@Z0@Z 0059f3cc     MSVCMRT:managdeh.obj
 0003:000003d0       __mep@?___CxxCallUnwindVecDtor@@$$J0YMXP6MXPAXIHP6MX0@Z@Z0IH1@Z 0059f3d0     MSVCMRT:managdeh.obj
 0003:000003d4       __mep@?__ArrayUnwind@@$$FYMXPAXIHP6MX0@Z@Z 0059f3d4     MSVCMRT:mehvecdtr.obj
 0003:000003d8       __mep@??_M@$$FYMXPAXIHP6MX0@Z@Z 0059f3d8     MSVCMRT:mehvecdtr.obj
 0003:000003dc       __mep@?ArrayUnwindFilter@?A0x57cabd3d@@$$FYAHPAU_EXCEPTION_POINTERS@@@Z 0059f3dc     MSVCMRT:mehvecdtr.obj
 0003:000003e0       __mep@?_atexit_helper@@$$J0YMHP6MXXZPAIPAPAP6MXXZ2@Z 0059f3e0     MSVCMRT:msilexit.obj
 0003:000003e4       __mep@?_exit_callback@@$$J0YMXXZ 0059f3e4     MSVCMRT:msilexit.obj
 0003:000003e8       __mep@?_atexit_m@@$$J0YMHP6MXXZ@Z 0059f3e8     MSVCMRT:msilexit.obj
 0003:000003ec       __mep@?_app_exit_callback@@$$J0YMXXZ 0059f3ec     MSVCMRT:msilexit.obj
 0003:000003f0       __mep@?_atexit_m_appdomain@@$$J0YMHP6MXXZ@Z 0059f3f0     MSVCMRT:msilexit.obj
 0003:000003f4       __mep@?_initatexit_m@@$$J0YMHXZ 0059f3f4     MSVCMRT:msilexit.obj
 0003:000003f8       __mep@?_onexit_m@@$$J0YMP6MHXZP6MHXZ@Z 0059f3f8     MSVCMRT:msilexit.obj
 0003:000003fc       __mep@?_initatexit_app_domain@@$$J0YMHXZ 0059f3fc     MSVCMRT:msilexit.obj
 0003:00000400       __mep@?_onexit_m_appdomain@@$$J0YMP6MHXZP6MHXZ@Z 0059f400     MSVCMRT:msilexit.obj
 0003:00000404       __mep@?_handle@AtExitLock@<CrtImplementationDetails>@@$$FCMP$AAVGCHandle@InteropServices@Runtime@System@@XZ 0059f404     MSVCMRT:msilexit.obj
 0003:00000408       __mep@?_lock_Set@AtExitLock@<CrtImplementationDetails>@@$$FCMXP$AAVObject@System@@@Z 0059f408     MSVCMRT:msilexit.obj
 0003:0000040c       __mep@?_lock_Get@AtExitLock@<CrtImplementationDetails>@@$$FCMP$AAVObject@System@@XZ 0059f40c     MSVCMRT:msilexit.obj
 0003:00000410       __mep@?_lock_Destruct@AtExitLock@<CrtImplementationDetails>@@$$FCAXXZ 0059f410     MSVCMRT:msilexit.obj
 0003:00000414       __mep@?IsInitialized@AtExitLock@<CrtImplementationDetails>@@$$FSA_NXZ 0059f414     MSVCMRT:msilexit.obj
 0003:00000418       __mep@?RemoveRef@AtExitLock@<CrtImplementationDetails>@@$$FSAXXZ 0059f418     MSVCMRT:msilexit.obj
 0003:0000041c       __mep@?Enter@AtExitLock@<CrtImplementationDetails>@@$$FSAXXZ 0059f41c     MSVCMRT:msilexit.obj
 0003:00000420       __mep@?Exit@AtExitLock@<CrtImplementationDetails>@@$$FSAXXZ 0059f420     MSVCMRT:msilexit.obj
 0003:00000424       __mep@?__global_lock@?A0xe62d03cb@@$$FYA_NXZ 0059f424     MSVCMRT:msilexit.obj
 0003:00000428       __mep@?__global_unlock@?A0xe62d03cb@@$$FYA_NXZ 0059f428     MSVCMRT:msilexit.obj
 0003:0000042c       __mep@?__dealloc_global_lock@?A0xe62d03cb@@$$FYAXXZ 0059f42c     MSVCMRT:msilexit.obj
 0003:00000430       __mep@?_lock_Construct@AtExitLock@<CrtImplementationDetails>@@$$FCMXP$AAVObject@System@@@Z 0059f430     MSVCMRT:msilexit.obj
 0003:00000434       __mep@?AddRef@AtExitLock@<CrtImplementationDetails>@@$$FSAXXZ 0059f434     MSVCMRT:msilexit.obj
 0003:00000438       __mep@?__alloc_global_lock@?A0xe62d03cb@@$$FYA_NXZ 0059f438     MSVCMRT:msilexit.obj
 0003:0000043c       __mep@?mainCRTStartupStrArray@@$$FYMHP$01AP$AAVString@System@@@Z 0059f43c     MSVCMRT:ManagedMain.obj
 0003:00000440       __mep@?__set_managed_app_type@?A0xf9a62e5d@@$$FYMXXZ 0059f440     MSVCMRT:ManagedMain.obj
 0003:00000444       __mep@?_common_init@?A0xf9a62e5d@@$$FYAXXZ 0059f444     MSVCMRT:ManagedMain.obj
 0003:00000448       __mep@?_initterm_e@@$$FYMHPAP6AHXZ0@Z 0059f448     MSVCMRT:puremsilcode.obj
 0003:0000044c       __mep@?_initterm@@$$FYMXPAP6AXXZ0@Z 0059f44c     MSVCMRT:puremsilcode.obj
 0003:00000450       __mep@?_initterm_m@@$$FYMXPBQ6MPBXXZ0@Z 0059f450     MSVCMRT:puremsilcode.obj
 0003:00000454       __mep@?Handle@ThisModule@<CrtImplementationDetails>@@$$FCM?AVModuleHandle@System@@XZ 0059f454     MSVCMRT:puremsilcode.obj
 0003:00000458       __mep@??$ResolveMethod@$$A6MPBXXZ@ThisModule@<CrtImplementationDetails>@@$$FSMP6MPBXXZP6MPBXXZ@Z 0059f458     MSVCMRT:puremsilcode.obj
 0003:0000045c       __mep@?_wsetargv@@$$J0YAHXZ 0059f45c     MSVCMRT:wdllargv.obj
 0003:00000460       ___globallocalestatus      0059f460     MSVCMRT:xthdloc.obj
 0003:00000464       ___native_dllmain_reason   0059f464     MSVCRT:natstart.obj
 0003:00000468       ___defaultmatherr          0059f468     MSVCRT:merr.obj
 0003:0000046c       ?__errorPfn@@3P6GXJPAUIErrorInfo@@@ZA 0059f46c     comsuppw:comsupp.obj
 0003:00000470       ??_R0?AVruntime_error@std@@@8 0059f470     classroomlist.obj
 0003:00000490       ??_R0?AVexception@std@@@8  0059f490     classroomlist.obj
 0003:000004ac       ??_R0?AVerror_category@std@@@8 0059f4ac     classroomlist.obj
 0003:000004d0       ??_R0?AV_Generic_error_category@std@@@8 0059f4d0     classroomlist.obj
 0003:000004fc       ??_R0?AV_Iostream_error_category@std@@@8 0059f4fc     classroomlist.obj
 0003:00000528       ??_R0?AV_System_error_category@std@@@8 0059f528     classroomlist.obj
 0003:00000554       ??_R0?AV_System_error@std@@@8 0059f554     classroomlist.obj
 0003:00000574       ??_R0?AVsystem_error@std@@@8 0059f574     classroomlist.obj
 0003:00000594       ??_R0?AVfailure@ios_base@std@@@8 0059f594     classroomlist.obj
 0003:000005b8       ??_R0?AV_com_error@@@8     0059f5b8     Root.obj
 0003:000005d4       ??_R0?AVtype_info@@@8      0059f5d4     MSVCRT:ti_inst.obj
 0003:000005f0       ?id@?$num_put@_WV?$back_insert_iterator@V?$basic_string@_WU?$char_traits@_W@std@@V?$allocator@_W@2@@std@@@std@@@std@@2V0locale@2@A 0059f5f0     classroomlist.obj
 0003:000005f4       ?id@?$num_put@DV?$back_insert_iterator@V?$basic_string@DU?$char_traits@D@std@@V?$allocator@D@2@@std@@@std@@@std@@2V0locale@2@A 0059f5f4     classroomlist.obj
 0003:00001ec0       ?Count@AllDomains@<CrtImplementationDetails>@@2HA 005a0ec0     MSVCMRT:mstartup.obj
 0003:00001ec4       ?Entered@DefaultDomain@<CrtImplementationDetails>@@2_NA 005a0ec4     MSVCMRT:mstartup.obj
 0003:00001ec5       ?InitializedNative@DefaultDomain@<CrtImplementationDetails>@@2_NA 005a0ec5     MSVCMRT:mstartup.obj
 0003:00001ec6       ?InitializedNativeFromCCTOR@DefaultDomain@<CrtImplementationDetails>@@2_NA 005a0ec6     MSVCMRT:mstartup.obj
 0003:00001ec7       ?InitializedPerProcess@DefaultDomain@<CrtImplementationDetails>@@2_NA 005a0ec7     MSVCMRT:mstartup.obj
 0003:00002004       __dowildcard               005a1004     MSVCMRT:wildcard.obj
 0003:00002008       __fmode                    005a1008     MSVCMRT:xtxtmode.obj
 0003:0000200c       __commode                  005a100c     MSVCMRT:xncommod.obj
 0003:00002010       ___onexitend               005a1010     <common>
 0003:00002014       ___onexitbegin             005a1014     <common>
 0003:00002018       ___native_startup_lock     005a1018     <common>
 0003:0000201c       ___native_startup_state    005a101c     <common>

 entry point at        0001:0001e19c

 Static symbols

 0000:ffe5b000       .debug$S                   00400000     kernel32:KERNEL32.dll
 0000:ffe5b000       .debug$S                   00400000     kernel32:KERNEL32.dll
 0000:ffe5b000       .debug$S                   00400000     kernel32:KERNEL32.dll
 0000:ffe5b000       .debug$S                   00400000     oleaut32:OLEAUT32.dll
 0000:ffe5b000       .debug$S                   00400000     oleaut32:OLEAUT32.dll
 0000:ffe5b000       .debug$S                   00400000     oleaut32:OLEAUT32.dll
 0000:ffe5b000       .debug$S                   00400000     oleaut32:OLEAUT32.dll
 0000:ffe5b000       .debug$S                   00400000     oleaut32:OLEAUT32.dll
 0000:ffe5b000       .debug$S                   00400000     oleaut32:OLEAUT32.dll
 0000:ffe5b000       .debug$S                   00400000     oleaut32:OLEAUT32.dll
 0000:ffe5b000       .debug$S                   00400000     oleaut32:OLEAUT32.dll
 0000:ffe5b000       .debug$S                   00400000     kernel32:KERNEL32.dll
 0000:ffe5b000       .debug$S                   00400000     MSCOREE:mscoree.dll
 0000:ffe5b000       .debug$S                   00400000     kernel32:KERNEL32.dll
 0000:ffe5b000       .debug$S                   00400000     kernel32:KERNEL32.dll
 0000:ffe5b000       .debug$S                   00400000     kernel32:KERNEL32.dll
 0000:ffe5b000       .debug$S                   00400000     MSVCRT:MSVCR120.dll
 0000:ffe5b000       .debug$S                   00400000     MSVCRT:MSVCR120.dll
 0000:ffe5b000       .debug$S                   00400000     MSVCRT:MSVCR120.dll
 0000:ffe5b000       .debug$S                   00400000     MSVCRT:MSVCR120.dll
 0000:ffe5b000       .debug$S                   00400000     MSVCRT:MSVCR120.dll
 0000:ffe5b000       .debug$S                   00400000     MSVCRT:MSVCR120.dll
 0000:ffe5b000       .debug$S                   00400000     MSVCRT:MSVCR120.dll
 0000:ffe5b000       .debug$S                   00400000     MSVCRT:MSVCR120.dll
 0000:ffe5b000       .debug$S                   00400000     Winmm:WINMM.dll
 0000:ffe5b000       .debug$S                   00400000     kernel32:KERNEL32.dll
 0002:fffe0000       ?id$initializer$@?$num_put@_WV?$back_insert_iterator@V?$basic_string@_WU?$char_traits@_W@std@@V?$allocator@_W@2@@std@@@std@@@std@@2P6MXXZA 00400000     Root.obj
 0000:ffe5b000       .debug$S                   00400000     MSVCRT:MSVCR120.dll
 0000:ffe5b000       .debug$S                   00400000     MSVCRT:MSVCR120.dll
 0002:fffe0000       ?id$initializer$@?$num_put@DV?$back_insert_iterator@V?$basic_string@DU?$char_traits@D@std@@V?$allocator@D@2@@std@@@std@@@std@@2P6MXXZA 00400000     Root.obj
 0002:fffe0000       ?_System_object$initializer$@?$_Error_objects@H@std@@2P6MXXZA 00400000     Root.obj
 0002:fffe0000       ?_Iostream_object$initializer$@?$_Error_objects@H@std@@2P6MXXZA 00400000     Root.obj
 0002:fffe0000       ?_Generic_object$initializer$@?$_Error_objects@H@std@@2P6MXXZA 00400000     Root.obj
 0000:ffe5b000       .debug$S                   00400000     kernel32:KERNEL32.dll
 0000:ffe5b000       .debug$S                   00400000     kernel32:KERNEL32.dll
 0000:ffe5b000       .debug$S                   00400000     kernel32:KERNEL32.dll
 0000:ffe5b000       .debug$S                   00400000     msvcprt:MSVCP120.dll
 0000:ffe5b000       .debug$S                   00400000     msvcprt:MSVCP120.dll
 0000:ffe5b000       .debug$S                   00400000     msvcprt:MSVCP120.dll
 0000:ffe5b000       .debug$S                   00400000     msvcprt:MSVCP120.dll
 0000:ffe5b000       .debug$S                   00400000     msvcprt:MSVCP120.dll
 0000:ffe5b000       .debug$S                   00400000     msvcprt:MSVCP120.dll
 0000:ffe5b000       .debug$S                   00400000     kernel32:KERNEL32.dll
 0000:ffe5b000       .debug$S                   00400000     kernel32:KERNEL32.dll
 0000:ffe5b000       .debug$S                   00400000     MSVCRT:MSVCR120.dll
 0000:ffe5b000       .debug$S                   00400000     MSVCRT:MSVCR120.dll
 0000:ffe5b000       .debug$S                   00400000     MSVCRT:MSVCR120.dll
 0000:ffe5b000       .debug$S                   00400000     MSVCRT:MSVCR120.dll
 0000:ffe5b000       .debug$S                   00400000     MSVCRT:MSVCR120.dll
 0000:ffe5b000       .debug$S                   00400000     MSVCRT:MSVCR120.dll
 0000:ffe5b000       .debug$S                   00400000     MSVCRT:MSVCR120.dll
 0000:ffe5b000       .debug$S                   00400000     MSVCRT:MSVCR120.dll
 0000:ffe5b000       .debug$S                   00400000     MSVCRT:MSVCR120.dll
 0000:ffe5b000       .debug$S                   00400000     MSVCRT:MSVCR120.dll
 0000:ffe5b000       .debug$S                   00400000     MSVCRT:MSVCR120.dll
 0000:ffe5b000       .debug$S                   00400000     MSVCRT:MSVCR120.dll
 0000:ffe5b000       .debug$S                   00400000     MSVCRT:MSVCR120.dll
 0000:ffe5b000       .debug$S                   00400000     MSVCRT:MSVCR120.dll
 0000:ffe5b000       .debug$S                   00400000     MSVCRT:MSVCR120.dll
 0000:ffe5b000       .debug$S                   00400000     MSVCRT:MSVCR120.dll
 0000:ffe5b000       .debug$S                   00400000     MSVCRT:MSVCR120.dll
 0000:ffe5b000       .debug$S                   00400000     MSVCRT:MSVCR120.dll
 0000:ffe5b000       .debug$S                   00400000     MSVCRT:MSVCR120.dll
 0000:ffe5b000       .debug$S                   00400000     MSVCRT:MSVCR120.dll
 0000:ffe5b000       .debug$S                   00400000     MSVCRT:MSVCR120.dll
 0000:ffe5b000       .debug$S                   00400000     MSVCRT:MSVCR120.dll
 0000:ffe5b000       .debug$S                   00400000     MSVCRT:MSVCR120.dll
 0000:ffe5b000       .debug$S                   00400000     MSVCRT:MSVCR120.dll
 0000:ffe5b000       .debug$S                   00400000     MSVCRT:MSVCR120.dll
 0000:ffe5b000       .debug$S                   00400000     MSVCRT:MSVCR120.dll
 0000:ffe5b000       .debug$S                   00400000     MSVCRT:MSVCR120.dll
 0000:ffe5b000       .debug$S                   00400000     MSVCRT:MSVCR120.dll
 0000:ffe5b000       .debug$S                   00400000     MSVCRT:MSVCR120.dll
 0000:ffe5b000       .debug$S                   00400000     kernel32:KERNEL32.dll
 0001:fffff01e       __catch$?button7_Click@permissions@CS346_A2@@$$FA$AAMXP$AAVObject@System@@P$AAVEventArgs@4@@Z$0 0040001e f   Root.obj
 0001:fffff03b       __catch$?ExecuteQuery@DatabaseHelper@@$$FSMP$AAVSqlDataReader@SqlClient@Data@System@@P$AAVString@5@@Z$0 0040003b f   Queries_User.obj
 0001:fffff03b       __catch$?ExecuteQuery@DatabaseHelper@@$$FSMP$AAVSqlDataReader@SqlClient@Data@System@@P$AAVString@5@@Z$0 0040003b f   permissions.obj
 0001:fffff03b       __catch$?fetchSeating@SeatingHelper@@$$FSMP$AAVSqlDataReader@SqlClient@Data@System@@P$AAVString@5@@Z$0 0040003b f   Root.obj
 0001:fffff03b       __catch$?ExecuteQuery@DatabaseHelper@@$$FSMP$AAVSqlDataReader@SqlClient@Data@System@@P$AAVString@5@@Z$0 0040003b f   Root.obj
 0001:fffff03b       __catch$?ExecuteQuery@DatabaseHelper@@$$FSMP$AAVSqlDataReader@SqlClient@Data@System@@P$AAVString@5@@Z$0 0040003b f   Queries_Admin.obj
 0001:fffff03b       __catch$?ExecuteQuery@DatabaseHelper@@$$FSMP$AAVSqlDataReader@SqlClient@Data@System@@P$AAVString@5@@Z$0 0040003b f   ExamSchedule.obj
 0001:fffff03b       __catch$?ExecuteQuery@DatabaseHelper@@$$FSMP$AAVSqlDataReader@SqlClient@Data@System@@P$AAVString@5@@Z$0 0040003b f   CourseList.obj
 0001:fffff03c       __catch$?insert_into_db@classroomlist@CS346_A2@@$$FA$AAMXXZ$0 0040003c f   Root.obj
 0001:fffff060       __catch$?ExecuteQuery@DatabaseHelper@@$$FSMP$AAVSqlDataReader@SqlClient@Data@System@@P$AAVString@5@P$01AP$AAVSqlParameter@345@@Z$0 00400060 f   Queries_User.obj
 0001:fffff060       __catch$?ExecuteQuery@DatabaseHelper@@$$FSMP$AAVSqlDataReader@SqlClient@Data@System@@P$AAVString@5@P$01AP$AAVSqlParameter@345@@Z$0 00400060 f   ExamSchedule.obj
 0001:fffff060       __catch$?ExecuteQuery@DatabaseHelper@@$$FSMP$AAVSqlDataReader@SqlClient@Data@System@@P$AAVString@5@P$01AP$AAVSqlParameter@345@@Z$0 00400060 f   Queries_Admin.obj
 0001:fffff060       __catch$?ExecuteQuery@DatabaseHelper@@$$FSMP$AAVSqlDataReader@SqlClient@Data@System@@P$AAVString@5@P$01AP$AAVSqlParameter@345@@Z$0 00400060 f   CourseList.obj
 0001:fffff060       __catch$?ExecuteQuery@DatabaseHelper@@$$FSMP$AAVSqlDataReader@SqlClient@Data@System@@P$AAVString@5@P$01AP$AAVSqlParameter@345@@Z$0 00400060 f   permissions.obj
 0001:fffff060       __catch$?ExecuteQuery@DatabaseHelper@@$$FSMP$AAVSqlDataReader@SqlClient@Data@System@@P$AAVString@5@P$01AP$AAVSqlParameter@345@@Z$0 00400060 f   Root.obj
 0001:fffff063       __catch$?FillFacultyComboBox@CourseList@CS346_A2@@$$FQ$AAMXXZ$0 00400063 f   Root.obj
 0001:fffff07d       __catch$?display_classroom_list@classroomlist@CS346_A2@@$$FA$AAMXXZ$0 0040007d f   Root.obj
 0001:fffff08f       __catch$?_Copy@?$basic_string@DU?$char_traits@D@std@@V?$allocator@D@2@@std@@$$FQAEXII@Z$0 0040008f f   Root.obj
 0001:fffff08f       $LN14                      0040008f f   Root.obj
 0001:fffff090       __catch$?add_complaint@Queries_User@CS346_A2@@$$FQ$AAMXP$AAVUser@@@Z$0 00400090 f   Root.obj
 0001:fffff09f       __catch$?btnAssign_Click@CourseList@CS346_A2@@$$FA$AAMXP$AAVObject@System@@P$AAVEventArgs@4@@Z$0 0040009f f   Root.obj
 0001:fffff0a0       __catch$?insert_into_db@classroomlist@CS346_A2@@$$FA$AAMXXZ$2 004000a0 f   Root.obj
 0001:fffff0a6       $LN271                     004000a6 f   Root.obj
 0001:fffff0dc       __catch$?get_Queries@Queries_Admin@CS346_A2@@$$FQ$AAMXXZ$0 004000dc f   Root.obj
 0001:fffff0eb       __catch$?_Copy@?$basic_string@DU?$char_traits@D@std@@V?$allocator@D@2@@std@@$$FQAEXII@Z$1 004000eb f   Root.obj
 0001:fffff0eb       $LN19                      004000eb f   Root.obj
 0001:fffff0f9       __catch$?get_Queries@Queries_User@CS346_A2@@$$FQ$AAMXP$AAVUser@@@Z$0 004000f9 f   Root.obj
 0001:fffff102       $LN275                     00400102 f   Root.obj
 0001:fffff109       __catch$?Resolve_query@Queries_Admin@CS346_A2@@$$FQ$AAMXXZ$0 00400109 f   Root.obj
 0001:fffff11a       __catch$?get_coursetable@CourseList@CS346_A2@@$$FQ$AAMXP$AAVString@System@@@Z$0 0040011a f   Root.obj
 0001:fffff11d       __catch$?Resolve_query@Queries_Admin@CS346_A2@@$$FQ$AAMXXZ$2 0040011d f   Root.obj
 0001:fffff123       $LN23                      00400123 f   Root.obj
 0001:fffff123       __catch$?_Copy@?$basic_string@DU?$char_traits@D@std@@V?$allocator@D@2@@std@@$$FQAEXII@Z$2 00400123 f   Root.obj
 0001:fffff132       $LN278                     00400132 f   Root.obj
 0001:fffff13b       __catch$?Resolve_query@Queries_Admin@CS346_A2@@$$FQ$AAMXXZ$4 0040013b f   Root.obj
 0001:fffff13c       __catch$?_Copy@?$basic_string@DU?$char_traits@D@std@@V?$allocator@D@2@@std@@$$FQAEXII@Z$3 0040013c f   Root.obj
 0001:fffff149       $LN27                      00400149 f   Root.obj
 0001:fffff149       __catch$?_Copy@?$basic_string@DU?$char_traits@D@std@@V?$allocator@D@2@@std@@$$FQAEXII@Z$5 00400149 f   Root.obj
 0001:fffff14d       __catch$?get_examschedule@ExamSchedule@CS346_A2@@$$FQ$AAMXHP$AAVUser@@@Z$0 0040014d f   Root.obj
 0001:fffff157       __catch$?btnAssign_Click@CourseList@CS346_A2@@$$FA$AAMXP$AAVObject@System@@P$AAVEventArgs@4@@Z$2 00400157 f   Root.obj
 0001:fffff15a       $LN279                     0040015a f   Root.obj
 0001:fffff165       __catch$?_Copy@?$basic_string@DU?$char_traits@D@std@@V?$allocator@D@2@@std@@$$FQAEXII@Z$6 00400165 f   Root.obj
 0001:fffff179       __catch$?btnAssign_Click@CourseList@CS346_A2@@$$FA$AAMXP$AAVObject@System@@P$AAVEventArgs@4@@Z$4 00400179 f   Root.obj
 0001:fffff1b0       __catch$?btnAssign_Click@CourseList@CS346_A2@@$$FA$AAMXP$AAVObject@System@@P$AAVEventArgs@4@@Z$6 004001b0 f   Root.obj
 0001:000004a0       __catch$?ExecuteQuery@DatabaseHelper@@$$FSMP$AAVSqlDataReader@SqlClient@Data@System@@P$AAVString@5@P$01AP$AAVSqlParameter@345@@Z$0 004014a0 f i classroomlist.obj
 0001:0000051b       __catch$?ExecuteQuery@DatabaseHelper@@$$FSMP$AAVSqlDataReader@SqlClient@Data@System@@P$AAVString@5@@Z$0 0040151b f i classroomlist.obj
 0001:000009a9       __catch$?display_classroom_list@classroomlist@CS346_A2@@$$FA$AAMXXZ$0 004019a9 f i classroomlist.obj
 0001:00000a10       __catch$?insert_into_db@classroomlist@CS346_A2@@$$FA$AAMXXZ$0 00401a10 f i classroomlist.obj
 0001:00000a74       __catch$?insert_into_db@classroomlist@CS346_A2@@$$FA$AAMXXZ$2 00401a74 f i classroomlist.obj
 0001:00001c0f       $LN14                      00402c0f f i classroomlist.obj
 0001:00001c0f       __catch$?_Copy@?$basic_string@DU?$char_traits@D@std@@V?$allocator@D@2@@std@@$$FQAEXII@Z$0 00402c0f f i classroomlist.obj
 0001:00001c26       $LN271                     00402c26 f i classroomlist.obj
 0001:00001c6b       __catch$?_Copy@?$basic_string@DU?$char_traits@D@std@@V?$allocator@D@2@@std@@$$FQAEXII@Z$1 00402c6b f i classroomlist.obj
 0001:00001c6b       $LN19                      00402c6b f i classroomlist.obj
 0001:00001c82       $LN275                     00402c82 f i classroomlist.obj
 0001:00001ca3       $LN23                      00402ca3 f i classroomlist.obj
 0001:00001ca3       __catch$?_Copy@?$basic_string@DU?$char_traits@D@std@@V?$allocator@D@2@@std@@$$FQAEXII@Z$2 00402ca3 f i classroomlist.obj
 0001:00001cb2       $LN278                     00402cb2 f i classroomlist.obj
 0001:00001cbc       __catch$?_Copy@?$basic_string@DU?$char_traits@D@std@@V?$allocator@D@2@@std@@$$FQAEXII@Z$3 00402cbc f i classroomlist.obj
 0001:00001cc9       __catch$?_Copy@?$basic_string@DU?$char_traits@D@std@@V?$allocator@D@2@@std@@$$FQAEXII@Z$5 00402cc9 f i classroomlist.obj
 0001:00001cc9       $LN27                      00402cc9 f i classroomlist.obj
 0001:00001cda       $LN279                     00402cda f i classroomlist.obj
 0001:00001ce5       __catch$?_Copy@?$basic_string@DU?$char_traits@D@std@@V?$allocator@D@2@@std@@$$FQAEXII@Z$6 00402ce5 f i classroomlist.obj
 0001:000029fa       __catch$?get_coursetable@CourseList@CS346_A2@@$$FQ$AAMXP$AAVString@System@@@Z$0 004039fa f i CourseList.obj
 0001:00002ae7       __catch$?btnAssign_Click@CourseList@CS346_A2@@$$FA$AAMXP$AAVObject@System@@P$AAVEventArgs@4@@Z$0 00403ae7 f i CourseList.obj
 0001:00002b9f       __catch$?btnAssign_Click@CourseList@CS346_A2@@$$FA$AAMXP$AAVObject@System@@P$AAVEventArgs@4@@Z$2 00403b9f f i CourseList.obj
 0001:00002bc1       __catch$?btnAssign_Click@CourseList@CS346_A2@@$$FA$AAMXP$AAVObject@System@@P$AAVEventArgs@4@@Z$4 00403bc1 f i CourseList.obj
 0001:00002bf8       __catch$?btnAssign_Click@CourseList@CS346_A2@@$$FA$AAMXP$AAVObject@System@@P$AAVEventArgs@4@@Z$6 00403bf8 f i CourseList.obj
 0001:00002ce7       __catch$?FillFacultyComboBox@CourseList@CS346_A2@@$$FQ$AAMXXZ$0 00403ce7 f i CourseList.obj
 0001:00003795       __catch$?get_examschedule@ExamSchedule@CS346_A2@@$$FQ$AAMXHP$AAVUser@@@Z$0 00404795 f i ExamSchedule.obj
 0001:00004403       __catch$?fetchSeating@SeatingHelper@@$$FSMP$AAVSqlDataReader@SqlClient@Data@System@@P$AAVString@5@@Z$0 00405403 f i permissions.obj
 0001:0000497a       __catch$?button7_Click@permissions@CS346_A2@@$$FA$AAMXP$AAVObject@System@@P$AAVEventArgs@4@@Z$0 0040597a f i permissions.obj
 0001:00005914       __catch$?get_Queries@Queries_Admin@CS346_A2@@$$FQ$AAMXXZ$0 00406914 f i Queries_Admin.obj
 0001:00005a49       __catch$?Resolve_query@Queries_Admin@CS346_A2@@$$FQ$AAMXXZ$0 00406a49 f i Queries_Admin.obj
 0001:00005a5d       __catch$?Resolve_query@Queries_Admin@CS346_A2@@$$FQ$AAMXXZ$2 00406a5d f i Queries_Admin.obj
 0001:00005a7b       __catch$?Resolve_query@Queries_Admin@CS346_A2@@$$FQ$AAMXXZ$4 00406a7b f i Queries_Admin.obj
 0001:00006110       __catch$?add_complaint@Queries_User@CS346_A2@@$$FQ$AAMXP$AAVUser@@@Z$0 00407110 f i Queries_User.obj
 0001:00006235       __catch$?get_Queries@Queries_User@CS346_A2@@$$FQ$AAMXP$AAVUser@@@Z$0 00407235 f i Queries_User.obj
 0001:00006b6b       __catch$?Upload_Profile_Photo@Student_Profile@CS346_A2@@$$FQ$AAMXP$AAVUser@@P$AAVImage@Drawing@System@@@Z$0 00407b6b f i Root.obj
 0001:00006c45       __catch$?profile_photo_fetch@Student_Profile@CS346_A2@@$$FQ$AAMXP$AAVUser@@@Z$0 00407c45 f i Root.obj
 0001:00006cd9       __catch$?UploadImageToDatabase@Student_Profile@CS346_A2@@$$FQ$AAMXP$01AEH@Z$0 00407cd9 f i Root.obj
 0001:00006d23       __catch$?UploadImageToDatabase@Student_Profile@CS346_A2@@$$FQ$AAMXP$01AEH@Z$1 00407d23 f i Root.obj
 0001:00007166       __catch$?retrieve_semester@Course_EnrollPage@CS346_A2@@$$FA$AAMHXZ$0 00408166 f i Root.obj
 0001:000071c5       __catch$?retrieve_year@Course_EnrollPage@CS346_A2@@$$FA$AAMHXZ$0 004081c5 f i Root.obj
 0001:0000725c       __catch$?is_registered@Course_EnrollPage@CS346_A2@@$$FA$AAM_NP$AAVString@System@@@Z$0 0040825c f i Root.obj
 0001:000073d6       __catch$?disp_comp_courses@Course_EnrollPage@CS346_A2@@$$FA$AAMXH@Z$0 004083d6 f i Root.obj
 0001:000074fe       __catch$?Add_DE@Course_EnrollPage@CS346_A2@@$$FA$AAMXHH@Z$0 004084fe f i Root.obj
 0001:00007604       __catch$?Add_DE@Course_EnrollPage@CS346_A2@@$$FA$AAMXHH@Z$2 00408604 f i Root.obj
 0001:00007741       __catch$?Add_OE@Course_EnrollPage@CS346_A2@@$$FA$AAMXHH@Z$0 00408741 f i Root.obj
 0001:000078b7       __catch$?DescButtonClicked@Course_EnrollPage@CS346_A2@@$$FA$AAMXHP$AAVDataGridView@Forms@Windows@System@@P$AAVString@6@@Z$0 004088b7 f i Root.obj
 0001:00007ec6       __catch$?display_audit_courses@Course_EnrollPage@CS346_A2@@$$FA$AAMXXZ$0 00408ec6 f i Root.obj
 0001:000085a7       __catch$?fill_Registered_table@RegisteredCourses@CS346_A2@@$$FQ$AAMXP$AAVUser@@@Z$0 004095a7 f i Root.obj
 0001:0000861e       __catch$?get_reg_status@RegisteredCourses@CS346_A2@@$$FQ$AAMXP$AAVUser@@@Z$0 0040961e f i Root.obj
 0001:0000881c       __catch$?get_profile@Fee_Payment_Dummy@CS346_A2@@$$FQ$AAMXP$AAVUser@@@Z$0 0040981c f i Root.obj
 0001:0000890d       __catch$?get_fee_data@Fee_Payment_Dummy@CS346_A2@@$$FQ$AAMXP$AAVStudent_data@@@Z$0 0040990d f i Root.obj
 0001:0000898d       __catch$?get_fee_data@Fee_Payment_Dummy@CS346_A2@@$$FQ$AAMXP$AAVStudent_data@@@Z$2 0040998d f i Root.obj
 0001:00008a39       __catch$?get_current_sem@Fee_Payment_Dummy@CS346_A2@@$$FQ$AAMXXZ$0 00409a39 f i Root.obj
 0001:00008be0       __catch$?button2_Click@Fee_Payment_Dummy@CS346_A2@@$$FA$AAMXP$AAVObject@System@@P$AAVEventArgs@4@@Z$0 00409be0 f i Root.obj
 0001:00008e0f       __catch$?get_timetable@TimeTableView@CS346_A2@@$$FQ$AAMXP$AAVString@System@@P$AAVUser@@@Z$0 00409e0f f i Root.obj
 0001:00009356       __catch$?button2_Click@Signup@CS346_A2@@$$FA$AAMXP$AAVObject@System@@P$AAVEventArgs@4@@Z$0 0040a356 f i Root.obj
 0001:000094e7       __catch$?button1_Click@Signup@CS346_A2@@$$FA$AAMXP$AAVObject@System@@P$AAVEventArgs@4@@Z$0 0040a4e7 f i Root.obj
 0001:00009c38       __catch$?ApproveButton_Click@CourseForm@CS346_A2@@$$FA$AAMXP$AAVObject@System@@P$AAVEventArgs@4@@Z$0 0040ac38 f i Root.obj
 0001:00009c4c       __catch$?ApproveButton_Click@CourseForm@CS346_A2@@$$FA$AAMXP$AAVObject@System@@P$AAVEventArgs@4@@Z$2 0040ac4c f i Root.obj
 0001:00009c6a       __catch$?ApproveButton_Click@CourseForm@CS346_A2@@$$FA$AAMXP$AAVObject@System@@P$AAVEventArgs@4@@Z$4 0040ac6a f i Root.obj
 0001:00009d87       __catch$?RejectButton_Click@CourseForm@CS346_A2@@$$FA$AAMXP$AAVObject@System@@P$AAVEventArgs@4@@Z$0 0040ad87 f i Root.obj
 0001:00009d98       __catch$?RejectButton_Click@CourseForm@CS346_A2@@$$FA$AAMXP$AAVObject@System@@P$AAVEventArgs@4@@Z$2 0040ad98 f i Root.obj
 0001:00009db3       __catch$?RejectButton_Click@CourseForm@CS346_A2@@$$FA$AAMXP$AAVObject@System@@P$AAVEventArgs@4@@Z$4 0040adb3 f i Root.obj
 0001:0000a038       __catch$?AddCourseToDatabase@AddCourseForm@CS346_A2@@$$FA$AAMXH@Z$0 0040b038 f i Root.obj
 0001:0000a10b       __catch$?IsValidInt@AddCourseForm@CS346_A2@@$$FA$AAM_NP$AAVString@System@@@Z$0 0040b10b f i Root.obj
 0001:0000a39b       __catch$?btnProfile_Click@ProfileForm@CS346_A2@@$$FA$AAMXP$AAVObject@System@@P$AAVEventArgs@4@@Z$0 0040b39b f i Root.obj
 0001:0000a5d9       __catch$?FetchUserData@ProfileForm@CS346_A2@@$$FA$AAMXH@Z$0 0040b5d9 f i Root.obj
 0001:0000a602       __catch$?FetchUserData@ProfileForm@CS346_A2@@$$FA$AAMXH@Z$2 0040b602 f i Root.obj
 0001:0000a6a5       __catch$?UploadImageToDatabase@ProfileForm@CS346_A2@@$$FA$AAMXP$01AEH@Z$0 0040b6a5 f i Root.obj
 0001:0000a6ef       __catch$?UploadImageToDatabase@ProfileForm@CS346_A2@@$$FA$AAMXP$01AEH@Z$1 0040b6ef f i Root.obj
 0001:0000a75a       __catch$?DisplayImageFromDatabase@ProfileForm@CS346_A2@@$$FA$AAMXP$01AE@Z$0 0040b75a f i Root.obj
 0001:0000ab1f       __catch$?AddGradeButton_Click@AddGradeForm@CS346_A2@@$$FA$AAMXP$AAVObject@System@@P$AAVEventArgs@4@@Z$0 0040bb1f f i Root.obj
 0001:0000ab47       __catch$?AddGradeButton_Click@AddGradeForm@CS346_A2@@$$FA$AAMXP$AAVObject@System@@P$AAVEventArgs@4@@Z$2 0040bb47 f i Root.obj
 0001:0000ab65       __catch$?AddGradeButton_Click@AddGradeForm@CS346_A2@@$$FA$AAMXP$AAVObject@System@@P$AAVEventArgs@4@@Z$4 0040bb65 f i Root.obj
 0001:0000b510       __catch$?get_profile@Student_Profile@CS346_A2@@$$FQ$AAMXP$AAVUser@@@Z$0 0040c510 f i Root.obj
 0001:0000b59b       __catch$?button2_Click@Student_Profile@CS346_A2@@$$FA$AAMXP$AAVObject@System@@P$AAVEventArgs@4@@Z$0 0040c59b f i Root.obj
 0001:0000d4bd       __catch$?Button_Click@CourseForm@CS346_A2@@$$FA$AAMXP$AAVObject@System@@P$AAVEventArgs@4@@Z$0 0040e4bd f i Root.obj
 0001:0000d7da       __catch$?Button_Click@CourseForm@CS346_A2@@$$FA$AAMXP$AAVObject@System@@P$AAVEventArgs@4@@Z$2 0040e7da f i Root.obj
 0001:0000d868       __catch$?Button_Click@CourseForm@CS346_A2@@$$FA$AAMXP$AAVObject@System@@P$AAVEventArgs@4@@Z$4 0040e868 f i Root.obj
 0001:0000d8f6       __catch$?Button_Click@CourseForm@CS346_A2@@$$FA$AAMXP$AAVObject@System@@P$AAVEventArgs@4@@Z$6 0040e8f6 f i Root.obj
 0001:0000dbea       __catch$?Button_Click@CourseForm@CS346_A2@@$$FA$AAMXP$AAVObject@System@@P$AAVEventArgs@4@@Z$8 0040ebea f i Root.obj
 0001:0000dbff       __catch$?Button_Click@CourseForm@CS346_A2@@$$FA$AAMXP$AAVObject@System@@P$AAVEventArgs@4@@Z$9 0040ebff f i Root.obj
 0001:0000ed22       __catch$?btnPhoto_Click@ProfileForm@CS346_A2@@$$FA$AAMXP$AAVObject@System@@P$AAVEventArgs@4@@Z$0 0040fd22 f i Root.obj
 0001:0000ee4a       __catch$?Button_Click@AddGradeForm@CS346_A2@@$$FA$AAMXP$AAVObject@System@@P$AAVEventArgs@4@@Z$0 0040fe4a f i Root.obj
 0001:0000eeca       __catch$?Button_Click@AddGradeForm@CS346_A2@@$$FA$AAMXP$AAVObject@System@@P$AAVEventArgs@4@@Z$2 0040feca f i Root.obj
 0001:0000ef53       __catch$?Button_Click@AddGradeForm@CS346_A2@@$$FA$AAMXP$AAVObject@System@@P$AAVEventArgs@4@@Z$4 0040ff53 f i Root.obj
 0001:0000efce       __catch$?Button_Click@AddGradeForm@CS346_A2@@$$FA$AAMXP$AAVObject@System@@P$AAVEventArgs@4@@Z$6 0040ffce f i Root.obj
 0001:0000f036       __catch$?Button_Click@AddGradeForm@CS346_A2@@$$FA$AAMXP$AAVObject@System@@P$AAVEventArgs@4@@Z$8 00410036 f i Root.obj
 0001:0000f09e       __catch$?Button_Click@AddGradeForm@CS346_A2@@$$FA$AAMXP$AAVObject@System@@P$AAVEventArgs@4@@Z$10 0041009e f i Root.obj
 0001:0000f8f9       __catch$?Button_Click@AddGradeForm@CS346_A2@@$$FA$AAMXP$AAVObject@System@@P$AAVEventArgs@4@@Z$12 004108f9 f i Root.obj
 0001:0000f901       __catch$?Button_Click@AddGradeForm@CS346_A2@@$$FA$AAMXP$AAVObject@System@@P$AAVEventArgs@4@@Z$13 00410901 f i Root.obj
 0001:000113ba       __catch$??0CourseForm@CS346_A2@@$$FQ$AAM@H@Z$0 004123ba f i Root.obj
 0001:00012606       __catch$??0AddGradeForm@CS346_A2@@$$FQ$AAM@H@Z$0 00413606 f i Root.obj
 0001:00015c08       __catch$?update_profile@Student_Profile@CS346_A2@@$$FQ$AAMXP$AAVUser@@@Z$0 00416c08 f i Root.obj
 0001:00015f14       __catch$?button1_Click@Register@CS346_A2@@$$FA$AAMXP$AAVObject@System@@P$AAVEventArgs@4@@Z$0 00416f14 f i Root.obj
 0001:00019e64       __catch$?button2_Click@MyForm@CS346_A2@@$$FA$AAMXP$AAVObject@System@@P$AAVEventArgs@4@@Z$0 0041ae64 f i Root.obj
 0001:0001b665       ?ArrayUnwindFilter@@YAHPAU_EXCEPTION_POINTERS@@@Z 0041c665 f   MSVCRT:ehvecdtr.obj
 0001:0001b6f0       $$000000                   0041c6f0     MSVCRT:sehprolg4.obj
 0001:0001bd6b       __catch$?AddHandler@ModuleUninitializer@<CrtImplementationDetails>@@$$FQ$AAMXP$AAVEventHandler@System@@@Z$0 0041cd6b f i MSVCMRT:mstartup.obj
 0001:0001bde1       __catch$?SingletonDomainUnload@ModuleUninitializer@<CrtImplementationDetails>@@$$FA$AAMXP$AAVObject@System@@P$AAVEventArgs@4@@Z$0 0041cde1 f i MSVCMRT:mstartup.obj
 0001:0001bdf6       __catch$?SingletonDomainUnload@ModuleUninitializer@<CrtImplementationDetails>@@$$FA$AAMXP$AAVObject@System@@P$AAVEventArgs@4@@Z$2 0041cdf6 f i MSVCMRT:mstartup.obj
 0001:0001bed9       __catch$?__get_default_appdomain@@$$FYAJPAPAUIUnknown@@@Z$0 0041ced9 f i MSVCMRT:mstartup.obj
 0001:0001bf6c       __catch$?GetDefaultDomain@<CrtImplementationDetails>@@$$FYMP$AAVAppDomain@System@@XZ$0 0041cf6c f i MSVCMRT:mstartup.obj
 0001:0001bff4       __catch$?DoCallBackInDefaultDomain@<CrtImplementationDetails>@@$$FYAXP6GJPAX@Z0@Z$0 0041cff4 f i MSVCMRT:mstartup.obj
 0001:0001c551       __catch$?_Initialize@LanguageSupport@<CrtImplementationDetails>@@$$FAAEXXZ$0 0041d551 f i MSVCMRT:mstartup.obj
 0001:0001c5c8       __catch$?_Initialize@LanguageSupport@<CrtImplementationDetails>@@$$FAAEXXZ$2 0041d5c8 f i MSVCMRT:mstartup.obj
 0001:0001c65e       __catch$?Cleanup@LanguageSupport@<CrtImplementationDetails>@@$$FAAMXP$AAVException@System@@@Z$0 0041d65e f i MSVCMRT:mstartup.obj
 0001:0001c668       __catch$?Cleanup@LanguageSupport@<CrtImplementationDetails>@@$$FAAMXP$AAVException@System@@@Z$1 0041d668 f i MSVCMRT:mstartup.obj
 0001:0001c6fa       __catch$?Initialize@LanguageSupport@<CrtImplementationDetails>@@$$FQAEXXZ$0 0041d6fa f i MSVCMRT:mstartup.obj
 0001:0001c710       __catch$?Initialize@LanguageSupport@<CrtImplementationDetails>@@$$FQAEXXZ$2 0041d710 f i MSVCMRT:mstartup.obj
 0001:0001c729       __catch$?Initialize@LanguageSupport@<CrtImplementationDetails>@@$$FQAEXXZ$3 0041d729 f i MSVCMRT:mstartup.obj
 0001:0001cd02       __catch$?_atexit_helper@@$$J0YMHP6MXXZPAIPAPAP6MXXZ2@Z$0 0041dd02 f   MSVCMRT:msilexit.obj
 0001:0001cd63       __catch$?_atexit_helper@@$$J0YMHP6MXXZPAIPAPAP6MXXZ2@Z$2 0041dd63 f   MSVCMRT:msilexit.obj
 0001:0001cd6a       __catch$?_atexit_helper@@$$J0YMHP6MXXZPAIPAPAP6MXXZ2@Z$3 0041dd6a f   MSVCMRT:msilexit.obj
 0001:0001dea8       $LN162                     0041eea8     comsuppw:invkprxy.obj
 0001:0001ded4       $LN152                     0041eed4     comsuppw:invkprxy.obj
 0001:0001def8       $LN163                     0041eef8     comsuppw:invkprxy.obj
 0001:0001df00       $LN153                     0041ef00     comsuppw:invkprxy.obj
 0001:0001df24       $LN164                     0041ef24     comsuppw:invkprxy.obj
 0001:0001df44       $LN154                     0041ef44     comsuppw:invkprxy.obj
 0001:0001df68       $LN165                     0041ef68     comsuppw:invkprxy.obj
 0001:0001df70       $LN155                     0041ef70     comsuppw:invkprxy.obj
 0001:0001e130       $$000000                   0041f130     MSVCRT:alloca16.obj
 0001:0001e170       $$000000                   0041f170     MSVCRT:chkstk.obj
 0002:00000138       _mixed_pcinit              00420138     MSVCMRT:ManagedMain.obj
 0002:0000013c       _pinit                     0042013c     MSVCRT:atonexit.obj
 0002:00000144       ___xc_ma_a                 00420144     MSVCMRT:mstartup.obj
 0002:00000148       ?Initialized$initializer$@CurrentDomain@<CrtImplementationDetails>@@$$Q2P6MXXZA 00420148     MSVCMRT:mstartup.obj
 0002:0000014c       ?Uninitialized$initializer$@CurrentDomain@<CrtImplementationDetails>@@$$Q2P6MXXZA 0042014c     MSVCMRT:mstartup.obj
 0002:00000150       ?IsDefaultDomain$initializer$@CurrentDomain@<CrtImplementationDetails>@@$$Q2P6MXXZA 00420150     MSVCMRT:mstartup.obj
 0002:00000154       ?InitializedVtables$initializer$@CurrentDomain@<CrtImplementationDetails>@@$$Q2P6MXXZA 00420154     MSVCMRT:mstartup.obj
 0002:00000158       ?InitializedNative$initializer$@CurrentDomain@<CrtImplementationDetails>@@$$Q2P6MXXZA 00420158     MSVCMRT:mstartup.obj
 0002:0000015c       ?InitializedPerProcess$initializer$@CurrentDomain@<CrtImplementationDetails>@@$$Q2P6MXXZA 0042015c     MSVCMRT:mstartup.obj
 0002:00000160       ?InitializedPerAppDomain$initializer$@CurrentDomain@<CrtImplementationDetails>@@$$Q2P6MXXZA 00420160     MSVCMRT:mstartup.obj
 0002:00000164       ___xc_ma_z                 00420164     MSVCMRT:mstartup.obj
 0002:00000168       ___xc_mp_a                 00420168     MSVCMRT:mstartup.obj
 0002:0000016c       ?_Generic_object$initializer$@?$_Error_objects@H@std@@2P6MXXZA 0042016c     classroomlist.obj
 0002:00000170       ?_Iostream_object$initializer$@?$_Error_objects@H@std@@2P6MXXZA 00420170     classroomlist.obj
 0002:00000174       ?_System_object$initializer$@?$_Error_objects@H@std@@2P6MXXZA 00420174     classroomlist.obj
 0002:00000178       ?id$initializer$@?$num_put@DV?$back_insert_iterator@V?$basic_string@DU?$char_traits@D@std@@V?$allocator@D@2@@std@@@std@@@std@@2P6MXXZA 00420178     classroomlist.obj
 0002:0000017c       ?id$initializer$@?$num_put@_WV?$back_insert_iterator@V?$basic_string@_WU?$char_traits@_W@std@@V?$allocator@_W@2@@std@@@std@@@std@@2P6MXXZA 0042017c     classroomlist.obj
 0002:00000180       ___xc_mp_z                 00420180     MSVCMRT:mstartup.obj
 0002:00000184       ___xi_vt_a                 00420184     MSVCMRT:mstartup.obj
 0002:00000188       ___xi_vt_z                 00420188     MSVCMRT:mstartup.obj
 0002:00000504       _GS_ExceptionPointers      00420504     MSVCRT:gs_report.obj
 0002:0017e0d8       __sehtable$??_M@YGXPAXIHP6EX0@Z@Z 0059e0d8     MSVCRT:ehvecdtr.obj
 0002:0017e0f8       __sehtable$?__ArrayUnwind@@YGXPAXIHP6EX0@Z@Z 0059e0f8     MSVCRT:ehvecdtr.obj
 0002:0017e118       __sehtable$__onexit        0059e118     MSVCRT:atonexit.obj
 0002:0017e168       __sehtable$?_com_invoke_helper@@YAJPAUIDispatch@@JGGPAXPB_WPADPAPAUIErrorInfo@@@Z 0059e168     comsuppw:invkprxy.obj
 0002:0017e390       .idata$6                   0059e390     MSVCRT:MSVCR120.dll
 0002:0017e454       .idata$6                   0059e454     kernel32:KERNEL32.dll
 0002:0017e4cc       .idata$6                   0059e4cc     Winmm:WINMM.dll
 0002:0017e58c       .idata$6                   0059e58c     msvcprt:MSVCP120.dll
 0002:0017e77e       .idata$6                   0059e77e     oleaut32:OLEAUT32.dll
 0002:0017e85e       .idata$6                   0059e85e     MSCOREE:mscoree.dll
 0003:000007dc       _allocator_arg             0059f7dc     classroomlist.obj
 0003:000007dd       _piecewise_construct       0059f7dd     classroomlist.obj
 0003:00001b98       _allocator_arg             005a0b98     Root.obj
 0003:00001b99       _piecewise_construct       005a0b99     Root.obj
 0003:00001ba0       _GS_ExceptionRecord        005a0ba0     MSVCRT:gs_report.obj
 0003:00001bf0       _GS_ContextRecord          005a0bf0     MSVCRT:gs_report.obj
 0003:00001ebc       _DebuggerWasPresent        005a0ebc     MSVCRT:gs_report.obj
 0003:00001fcc       ___onexitbegin_m           005a0fcc     MSVCMRT:msilexit.obj
 0003:00001fd0       ___onexitend_m             005a0fd0     MSVCMRT:msilexit.obj
 0003:00001fd4       ___exit_list_size          005a0fd4     MSVCMRT:msilexit.obj
 0004:00000060       $R000000                   005a2060     CS346_A2.res
